(lp0
S"You didn't let me finish!\n"
p1
aS"No, don't put it away, I'll suck on it later.\n"
p2
aS'It gets easier the more you do it and you can go faster.\n'
p3
aS'Here, blow.\n'
p4
aS"It'll make you feel better.\n"
p5
aS'I know it looks big, but trust me, it was a lot bigger beforehand.\n'
p6
aS"Wow, I didn't know they made them that small.\n"
p7
aS'No, whenever it started to slip out, I just held it in my hand.\n'
p8
aS'Penetrating oil.\n'
p9
aS"When a piece is stuck and you can't get it out.\n"
p10
aS"When you're pulling out.\n"
p11
aS'When you want to push in.\n'
p12
aS'Penetrating oil.\n'
p13
aS"I don't care how hard you have to try, just blow until it squeaks.\n"
p14
aS"Now let's start 69.\n"
p15
aS'Good thing I pulled it out when I did, because this nut was about to pop off.\n'
p16
aS'Just suck it up and go faster!\n'
p17
aS"You're being really rigid, and it's a little hard to swallow.\n"
p18
aS"Instead of letting it get banged around down there, why don't you put it in here?\n"
p19
aS"Where's my cute little stick?\n"
p20
aS'Usually it jumps up right away!\n'
p21
aS"It's not that it's hard, it just all came in at once.\n"
p22
aS'It tastes better when you have two in your mouth at the same time.\n'
p23
aS'The hole is too small.\n'
p24
aS"It won't fit!\n"
p25
aS'It still feels good to be on top for once.\n'
p26
aS"I need to get back to the other Johnson I'm tending to.\n"
p27
aS'Get a new chair.\n'
p28
aS"I'm not going to have you going down on me while we're talking.\n"
p29
aS"I'm just going to lay back while you drive me.\n"
p30
aS'Hey, who took my cherry?\n'
p31
aS"I think it's down in there too far.\n"
p32
aS"Let me see that hose, I'll pump it for you.\n"
p33
aS'You just sit back and relax.\n'
p34
aS'He finally got it in!\n'
p35
aS"I'm not going to put it in my mouth then stick it back in!\n"
p36
aS"It wouldn't have been out if you hadn't been playing with it!\n"
p37
aS'OMG, this tastes so good in my mouth.\n'
p38
aS'Pull it harder.\n'
p39
aS'I mean yank it!\n'
p40
aS'Pull harder.\n'
p41
aS"It isn't as much fun if you don't try hard enough.\n"
p42
aS"It feels good in my mouth, but I don't like the taste.\n"
p43
aS'Wow that thing is so big it can touch the ceiling\n'
p44
aS'Behold, I come quickly.\n'
p45
aS'The juice keeps coming out of the wrong hole!\n'
p46
aS"Okay I'm done.\n"
p47
aS'It was long and felt good!\n'
p48
aS'my box has got two holes and one is smaller than the other.\n'
p49
aS"It's way better with two people because you can put your fingers in places they aren't supposed to go.\n"
p50
aS'Ugh, but the come is soooo hard!\n'
p51
aS'This hurts between my legs.\n'
p52
aS'Is this ever going to stop?\n'
p53
aS'My arm was KILLING ME by the end of that!\n'
p54
aS'Why is he coming in the back door?\n'
p55
aS"Now you're going to get very wet, so you need to back it up a little.\n"
p56
aS'Sheesh, how did you manage to get it in there?\n'
p57
aS'I told him I could work with 5 inches but it would cost about $1,000 more than if he could give me 8 inches.\n'
p58
aS'Gross, just put it in and go back to bed!\n'
p59
aS'You spent half an hour fiddling your stick, and NOTHING came out!\n'
p60
aS"Sorry, I couldn't talk, I had nuts in my mouth.\n"
p61
aS"It's in there.\n"
p62
aS"It doesn't feel like it's in there, but it's in there.\n"
p63
aS'Well, it gets harder after awhile, you just have to adjust and work on it.\n'
p64
aS"I am positively beaming, I swear my lips can't stretch any wider!\n"
p65
aS'Is it in all the way?\n'
p66
aS"you can put it where ever you want, it doesn't matter\n"
p67
aS"Show me how big it is and I'll stick it in there.\n"
p68
aS'why do I always get the easy ones and you get the really big hard ones?\n'
p69
aS'Its good, it finally went in the hole!\n'
p70
aS'DO ME!\n'
p71
aS'DO ME!\n'
p72
aS'I hate it!\n'
p73
aS"It's so long!\n"
p74
aS'hit me up while im still wet\n'
p75
aS'Can you make it harder?\n'
p76
aS"I didn't even feel that last one.\n"
p77
aS"I'm not going to put it in my mouth then stick it back in!\n"
p78
aS'I almost put this thing in my mouth!\n'
p79
aS'It squirted me!\n'
p80
aS'Okay, we only have half an hour and we have a lot to squeeze in here.\n'
p81
aS"In this spot, we need to be very careful, because it's very dark and very wet.\n"
p82
aS"She's got her hand on the hole!\n"
p83
aS"OMG you're so slippery!\n"
p84
aS'Just try to stay in!\n'
p85
aS"I wish I didn't have to suck on it.\n"
p86
aS'I wish it would just shoot into my mouth.\n'
p87
aS'I sucked on it kinda hard and everything splashed on me, but it still tasted good!\n'
p88
aS'That was tiring.\n'
p89
aS'It took a lot of energy.\n'
p90
aS"It's so big I don't know how to handle it!\n"
p91
aS'It will be sturdier if you spread the legs.\n'
p92
aS'Could you tell I did that without my tongue?\n'
p93
aS'The more you blow, the harder it gets.\n'
p94
aS'Man, that was hard to swallow.\n'
p95
aS"You know when you have way too much in your mouth, and it's really hard to swallow?\n"
p96
aS"I'll put you to the side and do you later.\n"
p97
aS'Fits perfectly in your hands and in your life.\n'
p98
aS'Should I lick it off?\n'
p99
aS'Ohh ya, how was it?\n'
p100
aS'Did it hurt?\n'
p101
aS"Oh no, I can't put anything more in my mouth right now.\n"
p102
aS'Sometimes it just starts and then stops and then starts up again.\n'
p103
aS'You hold it open while I hold this and put it in\n'
p104
aS"It wasn't as big as I thought it'd be.\n"
p105
aS'He said I was really tight!\n'
p106
aS"The smaller ones don't hurt as much as the large ones.\n"
p107
aS"It's stuck in there good!\n"
p108
aS'Spread your legs, bend over, and remember, keep going until it comes out.\n'
p109
aS'Fits perfectly in your hands and in your life.\n'
p110
aS'I prefer the ones that are wider and softer over the skinner, harder ones; those just squirt too strong\n'
p111
aS"Put it in my hand; don't just leave it in my box.\n"
p112
aS"Let's look in there and see if we can get it out.\n"
p113
aS"Since we're having problems, I guess I'll just give it to you orally.\n"
p114
aS"It wasn't as big as I thought it'd be.\n"
p115
aS"You poor thing, you plowed me twice and didn't get paid!\n"
p116
aS'Can this be over soon?\n'
p117
aS'My butt hurts so bad.\n'
p118
aS'Is it going to be very long?\n'
p119
aS"I didn't know it could squirt that far!\n"
p120
aS"Don't suck too hard or it will shoot down your throat.\n"
p121
aS'What the heck is this white stuff all over the place?\n'
p122
aS"It's sticking to my hair!\n"
p123
aS"It's too long, I can't get it to curve!\n"
p124
aS'Would you help me get this thing out of here?\n'
p125
aS"It's too far in and it's stuck.\n"
p126
aS"I don't know how it happened, but I got a lot of it my mouth and it was nasty!\n"
p127
aS'You have 2 balls right there!\n'
p128
aS'Was that too fast?\n'
p129
aS"I'd be happy to do it again but much slower.\n"
p130
aS'I underestimated the amount of fluid coming out.\n'
p131
aS'Why would I put pressure on it?\n'
p132
aS"It's inside of me, that'll only make it go in deeper!\n"
p133
aS"We'll have to give it a good hand job.\n"
p134
aS'This tastes much better than it did yesterday!\n'
p135
aS'Get that thing out of your mouth!\n'
p136
aS'Wait, are you sure I can get it in the back?\n'
p137
aS'Get that thing out of there.\n'
p138
aS'Gosh, get your freaking head out from in between my legs!\n'
p139
aS"That's cheap!\n"
p140
aS'It went in but then right back out!\n'
p141
aS'You need to get back on top.\n'
p142
aS'it hits you in that right spot, not too high and not too low.\n'
p143
aS'What are you waiting for?\n'
p144
aS'Just stick it in already!\n'
p145
aS"I didn't know you could finish that fast!\n"
p146
aS'Look, its getting harder!\n'
p147
aS"Oh no, she's going in with no protection!\n"
p148
aS"Stop it I can't take anymore!\n"
p149
aS"I'm blowing as hard as I can but it's not coming out.\n"
p150
aS'God no, I already have 2 in my mouth!\n'
p151
aS"It's  not gonna fit.\n"
p152
aS"It's so big & the hole is so small.\n"
p153
aS'Oh yeah I have lots of secs.\n'
p154
aS'Your balls are perfect!\n'
p155
aS'I can fit two in the rear and one in the front.\n'
p156
aS"Oh my gosh, this thing is too little, I can't get it off!\n"
p157
aS"I'm not putting that in my mouth, it's way too hot.\n"
p158
aS'It hurts if you bite it.\n'
p159
aS"I think I'll just suck it instead.\n"
p160
aS"Wow, if it was that wet, I'd just keep going back and forth, back and forth, back and forth.\n"
p161
aS'That would be fun.\n'
p162
aS'That head is really small.\n'
p163
aS'Aww man this job makes my hands wet and sticky!\n'
p164
aS"This stupid thing won't go down!\n"
p165
aS"Oh, I didn't see that one coming!\n"
p166
aS"It's so sticky.\n"
p167
aS'Wait, once you get it in, how do you get it out?\n'
p168
aS'It got stuck in the crack!\n'
p169
aS'I put it in my mouth and I told him it tasted great, but OMG it made me want to gag so bad.\n'
p170
aS"Mmm...it's right in front of me and I want it in my mouth.\n"
p171
aS'It starts out soft, but then it gets really big.\n'
p172
aS'I screamed so loud because you never come at me from behind\n'
p173
aS'How do you get that thing in the hole?\n'
p174
aS'It hurts if you bite it.\n'
p175
aS"I think I'll just suck it instead.\n"
p176
aS'I always go deep down to get the slimy stuff out.\n'
p177
aS'When I get this thing in my hands, I just can not control myself\n'
p178
aS"It's suppose to be hard now and soft later.\n"
p179
aS"I'm surprised it remained stiff.\n"
p180
aS'You want a ride?\n'
p181
aS'All you have to do is sit on it.\n'
p182
aS"It's so good I could suck on it all day, it's just hard to get anything to come out.\n"
p183
aS"I probably look funny doing it, but it's a great workout.\n"
p184
aS"It's too big!\n"
p185
aS'It will never fit!\n'
p186
aS'I hate it when they pull out when they know you are coming!\n'
p187
aS'I have to wash off my hands.\n'
p188
aS"After sucking on that thing they're all sticky.\n"
p189
aS'Yeah, when you suck on it, it gets harder.\n'
p190
aS'Oh my God, something just exploded in my mouth!\n'
p191
aS"It's so much better when you do it faster!\n"
p192
aS'Take it out and start working on it.\n'
p193
aS'I wish you would finish already.\n'
p194
aS'This thing is huge.\n'
p195
aS'I can hardly put my hand around it and it wont fit in my mouth.\n'
p196
aS"When you push it down, it's supposed to rise back up.\n"
p197
aS'I hate it when balls come near me.\n'
p198
aS"Alright Justin, what am I doing wrong here, help me out cause it shouldn't take this long.\n"
p199
aS'Wow, why do you only have one hand on there?\n'
p200
aS'Is it not big enough for both of them?\n'
p201
aS'I think I cant swallow it anymore.\n'
p202
aS'I like the long thick black ones.\n'
p203
aS'Will you be wet forever?\n'
p204
aS'It was coming at my face!\n'
p205
aS'Just close your eyes and shove it in your mouth.\n'
p206
aS"Its small, slimy, and a little salty so you swallow it quick so you don't gag.\n"
p207
aS'He just jammed it in and it really hurt!\n'
p208
aS'Exactly, the larger ones taste worse.\n'
p209
aS"It won't go in, it's just way to small!\n"
p210
aS'You will definitely feel it inside you.\n'
p211
aS'If it feels too hard, then we can slow down.\n'
p212
aS"IT'S NOT GOING IN!\n"
p213
aS"It won't come!\n"
p214
aS'Pull it out!\n'
p215
aS'Pull it out!\n'
p216
aS'You just gotta stick it in there and move it around until the hole gets bigger, and that makes it easier to put it in next time.\n'
p217
aS'I like the big ones\n'
p218
aS'This thing needs to be a lot bigger!!\n'
p219
aS'Just stick it in already!\n'
p220
aS"Aren't they always hard\n"
p221
aS"And it might be a long, hard ride, but I'm gonna take it.\n"
p222
aS'GUYS GET OFF YOUR GONNA BREAK IT!!\n'
p223
aS'YOU CANT GET ON IT WHEN ITS DROOPING DOWN LIKE THAT!!\n'
p224
aS'I love to suck them to get the juice.\n'
p225
aS'Wow, this is a lot to swallow\n'
p226
aS'Well, his is stiffer but yours is longer\n'
p227
aS'Kaitlyn, what hole should I stick it in?\n'
p228
aS'the one in the front or the one in the back\n'
p229
aS'This would be so much more enjoyable if the balls were smaller.\n'
p230
aS'That one is so big it makes we want it even more!\n'
p231
aS'You have to wait for it to get hard and firm and then you can put it in.\n'
p232
aS"wow I didn't expect it to be that big\n"
p233
aS'Gonna push it to the limit, give it more!\n'
p234
aS"push it in, and when you think it's far enough, go a little farther.\n"
p235
aS'Take that out of your mouth!\n'
p236
aS"I'm supposed to do that, remember?\n"
p237
aS'keep squeezing, I know you can do it!\n'
p238
aS'It was long, and had a gigantic head.\n'
p239
aS'Just stick it in...Not there!\n'
p240
aS'Not there!\n'
p241
aS'It slides in your mouth easier.\n'
p242
aS'Just stick it in...Not there!\n'
p243
aS'Not there!\n'
p244
aS"Ow, please don't put it in that hole, it really hurts.\n"
p245
aS"I yanked on it really hard, but it wouldn't go up.\n"
p246
aS'Just give me something to shove in my mouth!\n'
p247
aS'Why is this in my mouth!\n'
p248
aS"Shake it hard, that way it'll all come out\n"
p249
aS'It hurts when you squeeze me there.\n'
p250
aS'I like the bigger ones better because I can hold them better.\n'
p251
aS'we only put hard things in our mouth\n'
p252
aS'when you get it open I know just the right way to squeeze it to get all the juice out\n'
p253
aS'How much for a finger and a movie?\n'
p254
aS'When he turns it up, it goes so hard it hurts...Like it made me cry.\n'
p255
aS"Yeah, it's hard.\n"
p256
aS"Why doesn't someone come up here and do 69 with me in front of the class?\n"
p257
aS"It's stuck!\n"
p258
aS'Help me get it out!\n'
p259
aS"It's so small, but it's so fun and nice to play with!\n"
p260
aS"Just because it's small doesn't mean it doesn't work\n"
p261
aS"Please don't feel threatened by the thickness of this.\n"
p262
aS"It shouldn't be too hard.\n"
p263
aS"These things are great, you just slide it up and down on the bar, but you have to make sure it's sticky.\n"
p264
aS"Not too sticky because then it doesn't budge but if it is too loose it just slides up and down with no control!\n"
p265
aS'It went in already!\n'
p266
aS"i didn't even feel it!\n"
p267
aS'The main goal I have here is to be able to take it out and pop it straight in my mouth without any pain.\n'
p268
aS'Too late!\n'
p269
aS"It's already in my mouth and it tastes fine to me.\n"
p270
aS'Thats where all the tasty juice comes out.\n'
p271
aS'I have to change positions!\n'
p272
aS"It's all sticky over here!\n"
p273
aS"Yeah, they're slick when they don't have anything on them.\n"
p274
aS'Can you just get it in already?\n'
p275
aS"Do you know how long it'd take me to suck in order to get a swallow full?\n"
p276
aS'As soon as I pulled it out I found the other hole.\n'
p277
aS'This one looks like a smally one, but a fun one.\n'
p278
aS'It just squirted on my face!\n'
p279
aS"You're going in and out.\n"
p280
aS'No, you have to stick your whole hand in there.\n'
p281
aS'Man, I could honk on this thing all day!\n'
p282
aS"Let's just do this one orally because it will gradually get harder as we go on.\n"
p283
aS"It wasn't hard but it was in so it still counts!\n"
p284
aS"not everyone can do it, there's a technique for getting on and staying in, and frankly getting out can be just as difficult.\n"
p285
aS"Not to mention, a lot of people don't know what they're doing while they're in there.\n"
p286
aS"That's too much meat to put inside your body at once.\n"
p287
aS'But I enjoy it.\n'
p288
aS'How am I supposed to get my mouth around this?\n'
p289
aS'Haha, my hole got super big.\n'
p290
aS"It's too big for my mouth.\n"
p291
aS"You can't put it in yet, it's not hard.\n"
p292
aS'We almost have this!\n'
p293
aS'Push harder!\n'
p294
aS'Can you go a little deeper?\n'
p295
aS'can only take in so much at a time.\n'
p296
aS'I want to blow that one!\n'
p297
aS"How do you caulk it, because my husband nailed it but it wasn't filled.\n"
p298
aS'You idiot, wrong hole!\n'
p299
aS'You have to wrap your hands around it and rub it up and down vigorously.\n'
p300
aS"I'm sucking hard but it's not coming up.\n"
p301
aS"Oh no, it's leaking white stuff.\n"
p302
aS'I wish we would have recorded that moment when the thing blew up and exploded all over my face!\n'
p303
aS"It's such a tight fit with the other three already in there!\n"
p304
aS"I'm trying to but every time I put it in my mouth he comes.\n"
p305
aS"OMG, it's not coming out!\n"
p306
aS'No matter how much I suck, its too thick.\n'
p307
aS"Why don't you just come at the same time as me?\n"
p308
aS'If one of you starts squirting that thing around, this is going to get serious.\n'
p309
aS'You put in slow and pull it out fast.\n'
p310
aS'Dont come in my face and expect me to keep my mouth shut!\n'
p311
aS"You need to be careful with your fingering, or else you won't make it all the way up.\n"
p312
aS'That was quick.\n'
p313
aS'Yeah, they make yours look tiny.\n'
p314
aS"I think the main problem is I use my hand so much it doesn't get a break.\n"
p315
aS'What is that nasty white stuff?\n'
p316
aS"I didn't have enough hands to hold it!\n"
p317
aS"Don't put that in there, the hole is too dirty\n"
p318
aS"Don't blow but finger them.\n"
p319
aS"I can't imagine what it would be like to be on the receiving end of that thing.\n"
p320
aS'No, I think its all cleaned up.\n'
p321
aS'I think I can squeeze you in.\n'
p322
aS'You have to pull it out, shake it a little, give it a minute then stick it in really fast.\n'
p323
aS'You need to quit sticking your fingers in things.\n'
p324
aS'Yeah, the bigger it is, the harder it is.\n'
p325
aS'Oh this popped out, do I just put it back in?\n'
p326
aS"You're going to get yourself in a deep hole.\n"
p327
aS"That's not doing the job, let's try it without the rubber now.\n"
p328
aS'...it was mostly oral.\n'
p329
aS"Just put it in, make sure it won't come out, and I will take care of the rest.\n"
p330
aS'Messed up the entry there.\n'
p331
aS"Sorry, let's try that again.\n"
p332
aS'We need at least 6 more inches before we can continue.\n'
p333
aS"Yeah, he was trying to get all deep with me, and he just kept plugging away at but it wasn't working.\n"
p334
aS'What kinda hole do you put that big thing in?\n'
p335
aS'Get your hand outta the hole!\n'
p336
aS'Come on!\n'
p337
aS"Let's get it in!\n"
p338
aS'Look, my lord, it comes!\n'
p339
aS'Pull it out, pull it out!\n'
p340
aS'You looked like you had two enormous balls in your mouth.\n'
p341
aS"When it's finished, where does it come out from?\n"
p342
aS"You have to keep shaking it, that's how you make it hard!\n"
p343
aS"I love BJ's.\n"
p344
aS"I don't mind that it's skinny, it's just not long enough.\n"
p345
aS'Now, the back is just as good as the front.\n'
p346
aS"It's too long and my throat hurts.\n"
p347
aS'Nooo that was great, keep going!\n'
p348
aS"Now I can't get it out!\n"
p349
aS'Reach down there and pull out some balls.\n'
p350
aS'Hold on, I have nuts in my mouth.\n'
p351
aS"You can lick it all you want, but don't bite it.\n"
p352
aS'Whoa, wait a second.\n'
p353
aS'How on earth did that get in there?\n'
p354
aS"the smallest I'll go for is 3.5 inches.\n"
p355
aS'Oh, come on!\n'
p356
aS'Just stick it in already.\n'
p357
aS"I just can't get it in there.\n"
p358
aS'Okay Liam, stick it in there.\n'
p359
aS'Art thou coming?\n'
p360
aS"I tried to stick a tampon and a few other things in there but it just didn't stop anything, so I figured it was time to call a big, strong man to do the job for me.\n"
p361
aS"It's so big!\n"
p362
aS"I can see it getting up there but I don't know if it'll fit in.\n"
p363
aS'They look thick to begin with, but when you put them in your mouth it is really quite surprising our thick they really are.\n'
p364
aS'Oh, yeah, I finger myself all the time.\n'
p365
aS"You're really shoving it in, aren't you?\n"
p366
aS'The dentist said I should just massage it nice and easy to make it feel harder.\n'
p367
aS'It almost slipped out of my hand!\n'
p368
aS'Aww, I just needed two more inches.\n'
p369
aS'Well if we go down, we go down together.\n'
p370
aS"It's still coming, and it's going keep coming for a while.\n"
p371
aS'I tried to blow it, but it got in my eyes.\n'
p372
aS'Be very careful,if you slip, it might break.\n'
p373
aS"I think I'd know if something went down my throat or not!\n"
p374
aS'Oh my God!\n'
p375
aS'It keeps on coming!\n'
p376
aS'Stop playing with it and just put it in already!\n'
p377
aS'Just stick it wherever it will fit.\n'
p378
aS"You can't go in that way!\n"
p379
aS"Don't you dare pull that out yet!\n"
p380
aS'I think I need a big black one.\n'
p381
aS'Oops, sorry, I swallowed.\n'
p382
aS"Don't worry, it won't be very long.\n"
p383
aS'Or hard, for that matter.\n'
p384
aS'All he does is sit there and rub his tin sword all day long.\n'
p385
aS'Ahh, I got juice all over me!\n'
p386
aS'Holy fuck, why is this so hard?\n'
p387
aS"It's too big, it won't fit.\n"
p388
aS'10 inches, black, nothing special.\n'
p389
aS'Take off the wrapper and pop that sucker in.\n'
p390
aS"Don't let it get sticky back there or we won't do it again.\n"
p391
aS"I don't think I can swallow this.\n"
p392
aS"I'm so mad!\n"
p393
aS"I haven't done it for so long and then I fell asleep!\n"
p394
aS"We haven't done 69 in a long time so you might not remember how to do it.\n"
p395
aS"It's too small, I won't be able to play with this!\n"
p396
aS'I blew another huge one!\n'
p397
aS"Here you hold it, and i'll slip it in, ok?\n"
p398
aS'Does it have be just one partner or can it be a three-way?\n'
p399
aS"It's so hard, I cant do it anymore!\n"
p400
aS'When you lick it you get white stuff on your tongue.\n'
p401
aS'Oh wow!\n'
p402
aS"They're so big!\n"
p403
aS"I hope they'll be able to fit in my mouth!\n"
p404
aS'Stick it in your mouth and blow quickly.\n'
p405
aS'be careful not to put it in the wrong hole.\n'
p406
aS'I love you, but you have to get out from between my legs\n'
p407
aS"Looks like I'm going to be riding this one.\n"
p408
aS'It looks pretty big, but I think I can handle it.\n'
p409
aS"Put it back in, it's still moist in the middle.\n"
p410
aS"Now if I can just get it in the hole, I'll show it to you up close and personal.\n"
p411
aS'...a great penetration!\n'
p412
aS"That just kind of squirted out there, didn't it!\n"
p413
aS'Oh it feels so good, you just insert here and squeeze.\n'
p414
aS"Why'd you take it out?!\n"
p415
aS'Put it back in!\n'
p416
aS'No, no, go back you were just in it!\n'
p417
aS'When you put it in your mouth it starts out hard but then if you keep going it gets really wet.\n'
p418
aS"Sadness... even thought it's hard you need suck it up and swallow it.\n"
p419
aS'Faster, Joseph!\n'
p420
aS'Keep pushing!\n'
p421
aS"I know it's hard, but we're almost done.\n"
p422
aS"No, I've still got one more slot\n"
p423
aS"It's a lot easier with your legs open.\n"
p424
aS"...there's one in the front and one in the back.\n"
p425
aS'Wow, dude, your hole is so big compared to mine!\n'
p426
aS"I'd much rather get my fingers sticky than my mouth.\n"
p427
aS"It's so deep, and moist!\n"
p428
aS'You gotta go further in.\n'
p429
aS'Come on, put your mouth on it!\n'
p430
aS'Suck it!\n'
p431
aS'Suck it, Kathy!\n'
p432
aS"Yeah but it's too big.\n"
p433
aS"I can't fit it in my mouth\n"
p434
aS'I know.\n'
p435
aS"It's thick and big, just how I like it.\n"
p436
aS'Make sure you beat it until it gets really hard, and then put it in.\n'
p437
aS"I said I wouldn't come, but I've lost all control and I need you now.\n"
p438
aS'I had to suck really hard to get it up then it went straight to the back of my throat!\n'
p439
aS"Just keep shoving it into holes and you'll find the right one eventually.\n"
p440
aS"I don't like to swallow right away, I like to keep it in my mouth.\n"
p441
aS'Pull your finger out of there!\n'
p442
aS'Can we slow down?\n'
p443
aS'Actually, can we just dismount for a minute?\n'
p444
aS"I need to catch my breath, I'm not used to riding this hard.\n"
p445
aS'Let me pull out so you can get in.\n'
p446
aS"Well if you'd have been doing it right 5 minutes ago, you would be done by now!\n"
p447
aS'He just shoved his head in between my legs!\n'
p448
aS"Pull it out a little bit, it's in too far.\n"
p449
aS'There should be a big black one in there.\n'
p450
aS'Well now you have to eat it because you already fingered it.\n'
p451
aS"That wasn't as hard as I thought it was going to be.\n"
p452
aS"Oh thank God it's shorter.\n"
p453
aS'Otherwise that would be waaayyy too long for me to handle.\n'
p454
aS'Oh, it finally came out.\n'
p455
aS"I don't want to get my legs all wet before I get it in!\n"
p456
aS'Just close your eyes, they all taste the same.\n'
p457
aS'Guys, I know that fits in a lot of places, but you have to learn to control it.\n'
p458
aS'I think i need a big black one.\n'
p459
aS'Oops, sorry, I swallowed\n'
p460
aS'It tastes better than it smells\n'
p461
aS"Okay, well, I'll still take it.\n"
p462
aS'Just make sure you put it in my box tonight.\n'
p463
aS"It's pretty big, so you better get it in to me.\n"
p464
aS'You came!\n'
p465
aS'You came!\n'
p466
aS"It's about time!\n"
p467
aS'I do this way better with my fingers.\n'
p468
aS'The hole is not big enough.\n'
p469
aS'I thought it would be bigger than that.\n'
p470
aS'I did all the hard ones last night.\n'
p471
aS"There's a huge load in the rear.\n"
p472
aS'Its not that it was hard, it was just very very long.\n'
p473
aS"I'll have the 8-inch, I haven't had a 12-inch in a while.\n"
p474
aS"It came all over me and I'm all wet.\n"
p475
aS'I like to do it slow because it lasts longer.\n'
p476
aS'That was really slippery, do you want it tighter, Jordan?\n'
p477
aS'I still have the flavor of your nuts on my tongue!\n'
p478
aS'Wow this one is really long, it might take a while.\n'
p479
aS'Hope you guys can handle it.\n'
p480
aS"Don't finish before me!\n"
p481
aS"Wait for me, so I don't have to finish by myself!\n"
p482
aS'poke it and if it jiggles, put it back in for another 5 minutes.\n'
p483
aS'make sure you wash your hands after handling those sweaty balls.\n'
p484
aS'I want you to mount it and grip it tight.\n'
p485
aS"I don't want you sliding off the end.\n"
p486
aS'Lean forward slightly and touch back down.\n'
p487
aS"It's everywhere!\n"
p488
aS'Give me a tissue!\n'
p489
aS"Whoa, that's a long one.\n"
p490
aS'You have white stuff all over your face.\n'
p491
aS'You really need to be in the mood for it or it just leaves you feeling unsatisfied.\n'
p492
aS'Make sure to get it in there quick.\n'
p493
aS"How'd that white stuff get all over your pants?\n"
p494
aS"It doesn't matter.\n"
p495
aS'Just put your hand down there and grab it\n'
p496
aS"Dude, why'd you just stop randomly?\n"
p497
aS'I came that day and I got massively wet.\n'
p498
aS"I can't, it wont go in any further, and if I push it anymore it'll get stuck!\n"
p499
aS'When you put it in your mouth it starts out hard but then if you keep going it gets really wet.\n'
p500
aS'Faster, Joseph!\n'
p501
aS'Keep pushing!\n'
p502
aS"I know it's hard, but we're almost done.\n"
p503
aS'It was just so beautiful, and big, and perfect.\n'
p504
aS'Look at how full my box is, I can barely get my hand in it.\n'
p505
aS"If I have to wait for you to come I'll be here all night!\n"
p506
aS'Those are too thin.\n'
p507
aS"They won't last very long\n"
p508
aS"That's a deep, dark crack down there!\n"
p509
aS'Without any warning, he just plowed me from behind!\n'
p510
aS'Wow, the dang thing is really in there, how will I get it out?\n'
p511
aS"You must stick it in, and make sure it's moist!\n"
p512
aS'You have to put it on the hole and push it in.\n'
p513
aS"If you don't stop sticking that thing in me, I'll break it off!\n"
p514
aS'More wood!\n'
p515
aS'You all need to get more wood!\n'
p516
aS"When you think about it, it was inside of my mouth, so it doesn't really count.\n"
p517
aS"My biggest fear is that it's going to get into my eyes.\n"
p518
aS"It's so slippery, I can't stop!\n"
p519
aS"Make sure it's in all the way\n"
p520
aS'Sorry guys, it usually takes me a few holes to get warmed up.\n'
p521
aS'I just got nailed from behind!\n'
p522
aS'Just hurry up and shove it all in there!\n'
p523
aS"I've never done one this big before!\n"
p524
aS"It's really hard so I have to just keep in my mouth and suck on it for a while.\n"
p525
aS'Well I had four guys on me.\n'
p526
aS'Try the other hole.\n'
p527
aS"How am I supposed to do this, it's so short!\n"
p528
aS'When we get done with the little one, were gonna do the big one.\n'
p529
aS"Oh damn it's too big, it won't fit.\n"
p530
aS"I guess I'll just have to suck on it.\n"
p531
aS"hmm it's long, black, and thick.\n"
p532
aS'Gaz, stop hitting me with your balls!\n'
p533
aS"I don't care how you get it in there, just do it!\n"
p534
aS'Wow my hand can really make it squirt.\n'
p535
aS'It was a lot easier on my knees.\n'
p536
aS'You have a 50% chance of getting head and a 50% chance of getting tail.\n'
p537
aS'It took 4 of us to get it back up.\n'
p538
aS'It felt like it was 8 and it was really 6, and it is so dark!\n'
p539
aS'He just exploded all over me!\n'
p540
aS"I'm sucking so hard and nothing is coming out.\n"
p541
aS"You're gonna have to put it in for me.\n"
p542
aS"Don't touch it yet, it ain't hard enough.\n"
p543
aS"Well at least we'll both go down together!\n"
p544
aS'It tasted good, but it had a bad after taste.\n'
p545
aS"You've been waving your nuts in my face for too long!\n"
p546
aS"Ahh, that's better.\n"
p547
aS'It slides in so easily.\n'
p548
aS"I wasn't expecting so many people to be pulling on it all night!\n"
p549
aS'Which hole does this go in, the bottom or the top?\n'
p550
aS"It's not thick enough.\n"
p551
aS'Push it in harder!\n'
p552
aS'At least give me some warning before you come in!\n'
p553
aS"I like to start out on top, then when I get tired of that, I'll move to the bottom.\n"
p554
aS"If you it pull it out of my mouth it'll come on my dress!\n"
p555
aS'I hate going down because it hurts my knees.\n'
p556
aS'Wow, you suck a lot!\n'
p557
aS'You suck more than I do!\n'
p558
aS'This is so easy, I could be in this position for hours.\n'
p559
aS'I like stuffing it all in my mouth at once.\n'
p560
aS'So you take the cap off, stick it into me, count to ten and pull it out.\n'
p561
aS"It won't fit.\n"
p562
aS'Wait, no wonder, wrong hole!\n'
p563
aS"Let's do it right here, right now!\n"
p564
aS'I was barely doing it for 10 minutes and I was dripping wet!\n'
p565
aS'The longer it gets, the harder it is.\n'
p566
aS'Yeah, she gets off really easily.\n'
p567
aS'Did I say you could take that out?\n'
p568
aS"It's too hard!\n"
p569
aS"I can't get it out.\n"
p570
aS"It's not huge, but it's big enough.\n"
p571
aS'Ew, I just did all of that work, and now I have white stuff all over my hands!\n'
p572
aS'Maybe we should oil it up and try again.\n'
p573
aS'Every time I stick it in, it slides right back out!\n'
p574
aS'I have been blowing it all day!\n'
p575
aS'If you could make it harder, that would really help.\n'
p576
aS"Oh no, it's all wet...crap it penetrated through!\n"
p577
aS'So first, you have to lubricate it, put it in and slide it in and out, until it looks good.\n'
p578
aS"It was so small I didn't even feel it sliding out.\n"
p579
aS'This is really hard to swallow.\n'
p580
aS'It hurts like hell!\n'
p581
aS'Pull it out, Pull it out!\n'
p582
aS"I can't find my rubber!\n"
p583
aS'I use it for my strap on!\n'
p584
aS"It's a rough ride in the back.\n"
p585
aS'We had to hold our boobs or it hurt.\n'
p586
aS'It was unusually long in my mouth.\n'
p587
aS'How far do I push this thing in?\n'
p588
aS"It's so hard.\n"
p589
aS"I didn't even know you were in there!\n"
p590
aS'I like it both ways.\n'
p591
aS"That wasn't bad at all!\n"
p592
aS'It was much easier than I expected, and it went by pretty quickly.\n'
p593
aS"For example, life is highway, and I'm gonna ride it all night long.\n"
p594
aS'Do I have any nuts in my teeth?\n'
p595
aS'Stop sliding it in so hard!\n'
p596
aS"You're going to break it!\n"
p597
aS"Just put it in now and you'll feel a lot better.\n"
p598
aS"I'll be finished long before you're done squirting that in there.\n"
p599
aS'Dillan, you squirted it on me!\n'
p600
aS"I'm wet!\n"
p601
aS"there used to be a bush there, but it's not there anymore.\n"
p602
aS"Try sliding it in, but don't force it, it's delicate.\n"
p603
aS"I can't wait to shove that foot-long in my mouth!\n"
p604
aS"I'm suprised that nut lasted that long, with it being finger tight.\n"
p605
aS'Ugh, why does it keep slipping out?\n'
p606
aS"It's hard to do it standing up.\n"
p607
aS'You gotta pull it out and lick all the white stuff off.\n'
p608
aS'I like how the balls feel in my hand.\n'
p609
aS"It's growing bigger and bigger and it won't stop.\n"
p610
aS'Wow, I can feel it getting harder now!\n'
p611
aS"That's the dumbest position I've ever been in, all I did was sit there and get paid to do it.\n"
p612
aS'This ball is really old and dirty.\n'
p613
aS"I don't think it is going to work very well.\n"
p614
aS'Why do I even keep trying?\n'
p615
aS'This thing is bigger than I am.\n'
p616
aS'Screw it.\n'
p617
aS'Come on, open wider, you can fit more in!\n'
p618
aS'This is too short.\n'
p619
aS"It's just silly.\n"
p620
aS"It looks like it's wet, you rubbed it too much and now it's wet.\n"
p621
aS"If you don't get that thing away from me I swear I will snap it in half!\n"
p622
aS'Push it in slowly.\n'
p623
aS'What are you supposed to do with something that little?\n'
p624
aS'Pull the fuck out!\n'
p625
aS'Whip it out and hand it to me.\n'
p626
aS'Give it to me in the front.\n'
p627
aS'Wait no, actually, give it to me in the back.\n'
p628
aS"Oh, I didn't know you came.\n"
p629
aS'Stop shoving it into me!\n'
p630
aS"There's already one in there!\n"
p631
aS'Alright, take out that big monster.\n'
p632
aS'Do you have an extra G-string?\n'
p633
aS'No, I want to wait so I can get more than just the head in my mouth.\n'
p634
aS'Wow, it got up really high that time.\n'
p635
aS"Don't push it in too deep, or it's gonna get stuck\n"
p636
aS'Its so hard, and I got white stuff all over me.\n'
p637
aS"Fine, I'll have to play with myself instead.\n"
p638
aS'It just squirted at me!\n'
p639
aS'I just like to sit there and suck on them\n'
p640
aS"I'm really getting tired of having this thing in my mouth.\n"
p641
aS'Yeah, it used to hurt me before, but now it comes naturally.\n'
p642
aS'Keep blowing, it feels so good!\n'
p643
aS"If you poke me with that thing one more time I'm gonna break it off.\n"
p644
aS'Well, I heard you say my name so I came as fast as I could.\n'
p645
aS'Hey Curt, Think you can make that hole any bigger?\n'
p646
aS'Ooh, I love the long, juicy ones!\n'
p647
aS"It tasted so good I didn't know whether to spit or swallow it!\n"
p648
aS'I was playing with it, and then it got longer, so I yanked it off!\n'
p649
aS'Just jerk it as hard as you can!\n'
p650
aS'it felt like it was slithering down my throat!\n'
p651
aS'You can suck them and suck them and suck them and they will never get any smaller!\n'
p652
aS"Lose-Lose says 'If I'm going down, then you're going down with me, sucker.\n"
p653
aS"It's pretty hard actually.\n"
p654
aS'Harder than you expect.\n'
p655
aS'Okay, let me hold your wood, and you drill it in.\n'
p656
aS'Did it taste better when it was wet?\n'
p657
aS'I know!\n'
p658
aS"I've never had to swallow one this big!\n"
p659
aS'lubricates it so it can easily go in and out.\n'
p660
aS'I have three holes.\n'
p661
aS'Just tell me if you get too wet, okay?\n'
p662
aS"Don't you dare blow on me!\n"
p663
aS"It's really small, you gotta jam it in there real hard.\n"
p664
aS"Darn I'm just not sucking anything up!\n"
p665
aS'You just have to keep pushing, but not too hard or else you might get wet.\n'
p666
aS"That was easy, I didn't even have to bang it.\n"
p667
aS"It's too small, it keeps sliding out of place!\n"
p668
aS"Back in my day they weren't as big, you could get done with them in no time.\n"
p669
aS'I looked down and saw this black thing going in the hole.\n'
p670
aS'Are you stiff yet?\n'
p671
aS"He could see where the hole was, but it just closed up so quickly that he couldn't get in there.\n"
p672
aS'Make sure you shove it kinda hard so it goes in the holes.\n'
p673
aS'I cant blow hard enough to keep it up.\n'
p674
aS'Yeah, you can only play with so many balls.\n'
p675
aS'Can you put it in?\n'
p676
aS"I can't seem to find the hole and it's starting to hurt already.\n"
p677
aS'Hurry, whip it out so we can get started.\n'
p678
aS'Oh wait this is too small.\n'
p679
aS'I want it bigger.\n'
p680
aS'When I pulled it out, there was white stuff on me.\n'
p681
aS'I have to be careful or it might come out all over everything.\n'
p682
aS"I'm just going to do this quick and dirty.\n"
p683
aS"It's in me!\n"
p684
aS"OMG, it's so big!\n"
p685
aS'It hurts, get it out!\n'
p686
aS'Put it in further and push harder!\n'
p687
aS"Damn it Adam, I could actually get some if you didn't keep pulling out so fast!\n"
p688
aS'I had it and my sister wanted it, so gave it to her and she rode it for a while.\n'
p689
aS'I still have the taste of nuts in my mouth!\n'
p690
aS'Ugh, rubbing it more just made it bigger.\n'
p691
aS'Thanks for letting me know you were coming inside!\n'
p692
aS'Most of the time I can control, it but today it just came out\n'
p693
aS'The opening is in the back, so you kind of have to slide it in from below.\n'
p694
aS"This may be a little rough, he's really big.\n"
p695
aS"It goes to sleep if I don't touch it for too long.\n"
p696
aS"Just because it's long doesn't mean it's hard.\n"
p697
aS'This is going to be a big one!\n'
p698
aS'Here it comes!\n'
p699
aS"Ughh I'm tired of putting them in just to pull them out!\n"
p700
aS'You do it!\n'
p701
aS'I can feel it going down my throat.\n'
p702
aS'Mmm, I like where your head is.\n'
p703
aS'This feels weird in my mouth.\n'
p704
aS'Everybody in the hole!\n'
p705
aS'What is that gross stuff in there?\n'
p706
aS'I dont like things that squirt in my mouth.\n'
p707
aS"Let me know if that's blowing too hard.\n"
p708
aS'It is so big I have to use both hands.\n'
p709
aS'You know, it actually feels better the farther in you go.\n'
p710
aS"Once you're all the way in, it feels perfect.\n"
p711
aS"It's going to be really hot and tight.\n"
p712
aS"It's wide enough to fit, just I want it longer.\n"
p713
aS'It went down the wrong hole!\n'
p714
aS'it makes my day every time he comes inside.\n'
p715
aS'High five, you made it in!\n'
p716
aS'The more massive it is, the more penetrating power it has.\n'
p717
aS'If you can get the inside wet, you should be able to get it off.\n'
p718
aS'Yeah, I think they have to be wrapped.\n'
p719
aS'Yeah, just stick it in there.\n'
p720
aS'You gotta shove it in that hole.\n'
p721
aS'You will feel everything with this one, it has a very sensitive tip.\n'
p722
aS"That's okay I like mine tight.\n"
p723
aS"It's wide open for you, just the way you like it!\n"
p724
aS"Oh my goodness, that's enormous.\n"
p725
aS"It's almost the size and weight of the phone.\n"
p726
aS'blows to hard it gets all over get face!\n'
p727
aS"This isn't even fun anymore.\n"
p728
aS'Its hot, sticky, and taking too long.\n'
p729
aS"Wow, that's a good one...you should pull it out at parties.\n"
p730
aS"OMG I'm so wet...can I get a towel?\n"
p731
aS'Let me see how wet it is before I put it in.\n'
p732
aS'Its dribbling down my chin!\n'
p733
aS'It is not bigger than me.\n'
p734
aS'I am bigger than it.\n'
p735
aS"I don't want to put that in my body\n"
p736
aS"Can you tell me if it's coming any time soon?\n"
p737
aS'Because this is ridiculous!\n'
p738
aS"It doesn't matter what color they are, they all taste the same.\n"
p739
aS'It got everywhere but my mouth\n'
p740
aS"It's thicker than I thought.\n"
p741
aS"W'hen the balls hit you its probably going to hurt since it's your first time\n"
p742
aS"Push it in harder, it'll probably go in far enough.\n"
p743
aS"Just do it until it's long enough\n"
p744
aS'Nope that does go in there.\n'
p745
aS'No, not in there either.\n'
p746
aS'Keep trying Charles, you can do it!\n'
p747
aS"It's too dry to fit down my throat.\n"
p748
aS"We can't just stick a finger in the dyke, someone's gotta go down.\n"
p749
aS'Hold on, let me use both hands.\n'
p750
aS"No, you're putting it in too far... you're shoving it too hard... well don't put your finger in the hole!\n"
p751
aS"What, it's stuck.\n"
p752
aS"It's getting too hard to blow.\n"
p753
aS"you're stretching my hole!\n"
p754
aS'We have to be really fast when they start coming.\n'
p755
aS"I feel the 3 holes but I don't know where to put it in.\n"
p756
aS"I can't.\n"
p757
aS"I keep on pulling on it but it won't come down!\n"
p758
aS'Come on!\n'
p759
aS'come on!\n'
p760
aS'Faster faster!\n'
p761
aS'Harder Harder!\n'
p762
aS'Come on you can do it!\n'
p763
aS'Thank you for coming, I know it was long.\n'
p764
aS'Where do you put it in?\n'
p765
aS"Man, she almost fell from yankin' that thing so hard.\n"
p766
aS"I can do a lot with this even though it's short.\n"
p767
aS'Stop fingering my muffin!\n'
p768
aS"Don't ask questions, just put this in your mouth and suck on it.\n"
p769
aS"She's good with the hands, bad with the head!\n"
p770
aS'You have to pay to use the front entrance, but the rear entrance is no charge.\n'
p771
aS"I prefer using that one; it's more fun.\n"
p772
aS'Quit fingering it, and just eat it.\n'
p773
aS'It almost got in the hole!\n'
p774
aS"It's not how hard you blow, it's all about technique.\n"
p775
aS"No matter how hard I suck on this thing, it still won't come up.\n"
p776
aS'It was fast, it was hard, and you hit everything with perfect accuracy.\n'
p777
aS'I loved it.\n'
p778
aS'I only saw the tip of it but it looks huge!\n'
p779
aS'For such a small man, he takes a long time.\n'
p780
aS'Put it in my box\n'
p781
aS"It hardly fits in my mouth, it can't fit in my throat.\n"
p782
aS'I took yours out earlier because it was so small.\n'
p783
aS"I can't spread my legs far enough to get on it.\n"
p784
aS"You're going to have to pull out before I can get in there.\n"
p785
aS"Don't put it in yet!\n"
p786
aS'It was gonna blow so I had to cover my face.\n'
p787
aS"Now I'm all wet.\n"
p788
aS'We have to get it out quick!\n'
p789
aS'It was way too slippery, I had nothing to hold on to!\n'
p790
aS'I just need to stuff something in my mouth to keep me satisfied.\n'
p791
aS'Hey, get out of my bush!\n'
p792
aS"You can put it in either one, but make sure you don't squish my buns.\n"
p793
aS'Can you not drive like that while this is in my mouth?\n'
p794
aS"It's going to get all over my face.\n"
p795
aS"Dont get me wrong, it's nice, really nice, but it's just too big\n"
p796
aS"But I've seen them come a lot faster.\n"
p797
aS"...when it's thicker, it's usually shorter!\n"
p798
aS"Let's do it orally, it will be faster.\n"
p799
aS'Hey look it fits in the crack!\n'
p800
aS"I'm not sure, but I'll bet it's huge.\n"
p801
aS'Why does it get all wet like that?\n'
p802
aS'I love putting things in my mouth...it feels good!\n'
p803
aS"Oh, yeah, it's the blackest one I've ever seen and it lasts a really long time.\n"
p804
aS'Contractions are 10 minutes apart...now if it would just get harder we might see some progress.\n'
p805
aS"that was the most enjoyable sausage I've ever had in my mouth.\n"
p806
aS'He put that thing in my face, and I can still taste it in my mouth!\n'
p807
aS'There you go.\n'
p808
aS'Push it up into her.\n'
p809
aS'The harder they are, the more they hurt.\n'
p810
aS"I can't wrap my hand around it!\n"
p811
aS"I don't know maybe the hole's too small!\n"
p812
aS"OK, I'm just going to hold this and stare at it until it comes.\n"
p813
aS'I can put the whole thing in my mouth and take the nut out!\n'
p814
aS'Whoa, he pulled out without warning!\n'
p815
aS'When I kissed him, it got a little bigger.\n'
p816
aS'You really have to suck hard to get it come in your mouth.\n'
p817
aS'Geez, It just keeps getting harder and harder the more you play with it!\n'
p818
aS"It's always dark and I'm always drunk when I go down here.\n"
p819
aS'I usually just go down but sometimes they make me do other things.\n'
p820
aS"I hate it when you have it in your mouth and you just don't want to swallow\n"
p821
aS'Yeah, I thought it was gonna be a little long, but it was actually kinda short.\n'
p822
aS'It fit perfectly.\n'
p823
aS"Wow, I didn't know he could get that long!\n"
p824
aS'Get your finger out of my muffin!\n'
p825
aS'This is the hardest thing I have ever sat on.\n'
p826
aS"Any time he'd come I would tilt my head back and swallow the whole thing.\n"
p827
aS"Yea, it wasn't hard to get off.\n"
p828
aS"How many BJ's do you need?\n"
p829
aS"Yeah, it's gonna be never ending.\n"
p830
aS'The company is fine.\n'
p831
aS"It's my butt that can't take it.\n"
p832
aS"Wow, it's amazing what you can do with your two fingers.\n"
p833
aS'Why do you always pull it out when I get to the good part?\n'
p834
aS"It's been in your mouth for half an hour!\n"
p835
aS'Either spit it out or swallow it!\n'
p836
aS'I like doing the big ones.\n'
p837
aS'Come on, get in, get in HURRY!\n'
p838
aS'Put it back in and this time wait until you finish to pull it out.\n'
p839
aS'Oh man!\n'
p840
aS'It squirted on my face!\n'
p841
aS'You sure you know where to put it in?\n'
p842
aS'Man it hurts my legs trying to balance on this thing\n'
p843
aS"Why the heck won't it go in?\n"
p844
aS"Oh, it's not stiff enough.\n"
p845
aS'I have to suck so hard!\n'
p846
aS'Once I\xe2\x80\x99ve been drinking a lot, my top comes off pretty easily.\n'
p847
aS"It's really wet and I've already had a couple kids go down unexpectedly.\n"
p848
aS'it was too big, and had too much cream.\n'
p849
aS'Yeah, it was just something that came out unexpectedly.\n'
p850
aS'Your noodle just squirted up into me!\n'
p851
aS'Alright, I will try my hardest to come.\n'
p852
aS'Pump with your right hand and then slowly add in your left.\n'
p853
aS"I'm already wet without you putting your hands on me.\n"
p854
aS'It tastes better if you lick it off the top\n'
p855
aS"I dont think it's going to fit, maybe we should get it wet, then it will slide in really easy.\n"
p856
aS'Ughh, I hate those big black balls!\n'
p857
aS'Stop playing with it and eat it already!\n'
p858
aS'This gives your arm a workout!\n'
p859
aS'Ow, now my cheeks hurt from blowing too hard.\n'
p860
aS'It was so hard my lips were swollen.\n'
p861
aS'Is there any white stuff on my face?\n'
p862
aS'Oh yeah I hate it when it pulls out just as you get there.\n'
p863
aS'You almost made me choke!\n'
p864
aS"I've never felt something go that far down my throat in my life!\n"
p865
aS'It squirted all over my face and hands!\n'
p866
aS'dangit, it fell out.\n'
p867
aS"I can't get it back in.\n"
p868
aS'This is a long and hard one, so ride it the hardest and fastest you can.\n'
p869
aS"I'm putting it in all the way and it doesn't work!\n"
p870
aS"If I keep pulling it out it'll get even harder!\n"
p871
aS"it's too thick.\n"
p872
aS"I just keep sucking and I'm getting dizzy from it.\n"
p873
aS"There's too much of it, it wont all go in at once.\n"
p874
aS"It's too big, it will rip!\n"
p875
aS'Son, after she gets off, then you can leave.\n'
p876
aS'Everyone squirted a little in mine.\n'
p877
aS'Do you have to suck harder to get more out?\n'
p878
aS"That's quite big, it might not fit.\n"
p879
aS'Oh shove it in anyway!\n'
p880
aS"You know, from what I hear, they don't really suck.\n"
p881
aS'They blow.\n'
p882
aS'Just jiggle it around a little and it should slide right in\n'
p883
aS'Yeah, everything on that boy is oversized.\n'
p884
aS"I don't care as long as it's fun to play with.\n"
p885
aS"It's so big!\n"
p886
aS"I can't possibly fit the whole thing in my mouth!\n"
p887
aS'Just stuff the damn thing in your mouth and swallow.\n'
p888
aS"It's too big, it won't fit in.\n"
p889
aS'As soon as I squeezed it, it squirted on me.\n'
p890
aS"Normally there's a huge climax but for some reason it's not coming.\n"
p891
aS'Oh just put it back there somewhere, but be gentle with it; I dunno if its wrapped.\n'
p892
aS'I cant suck that!\n'
p893
aS'It is way to large to fit in my mouth!\n'
p894
aS'I know, he licks and licks and makes everything wet!\n'
p895
aS'Ok, I finally came.\n'
p896
aS'Are you happy now?\n'
p897
aS"He's so big, let the poor guy in.\n"
p898
aS'It\xe2\x80\x99s probably already hard.\n'
p899
aS"Slow down, you're too quick!\n"
p900
aS"The head is the best part, it's very juicy.\n"
p901
aS'You need to get it and suck it, suck every little thing out.\n'
p902
aS"There's no way I can fit all of this in my mouth!\n"
p903
aS"It isn't stiff enough yet.\n"
p904
aS'Do you want me to pull it out for you?\n'
p905
aS"I'm going to put my mouth on it and suck it dry.\n"
p906
aS"It's big, it's slow and it's gonna be long.\n"
p907
aS'Yeah, I was hopping up here so you could get off.\n'
p908
aS'Put this in.\n'
p909
aS"You'll like it.\n"
p910
aS"Wow, I didn't know they came that small.\n"
p911
aS'Oh, it was a long one.\n'
p912
aS"Don't squeeze it too hard or it will all come squirting out the top.\n"
p913
aS"If I suck too hard, I'm gonna choke.\n"
p914
aS'Boy, I sure hope that tastes better than it smells.\n'
p915
aS'No, because it will take me longer than you to finish.\n'
p916
aS"It was coming at me so fast, I didn't have time to close my mouth.\n"
p917
aS'That thing entered so quickly\n'
p918
aS"Oh, that's not going to be big enough.\n"
p919
aS'wWhen you stick it in, it hurts.\n'
p920
aS'oh, two guys are coming, this is going to be a real treat.\n'
p921
aS"It was exciting, I just wish it would've lasted longer.\n"
p922
aS"No, they're about the same size except his is longer.\n"
p923
aS"I'm getting it wet first so it won't hurt!\n"
p924
aS"I worked that hard getting it in, I'm not taking it out.\n"
p925
aS'Hey can you pull it out so I can go down?\n'
p926
aS'I choked before I even put it in my mouth.\n'
p927
aS"I'm waiting for you to go down, I don't care how long it takes I got all day.\n"
p928
aS'My favorite way to have these is to suck on them one at a time.\n'
p929
aS'I had to press it really hard so the sticky stuff would come out.\n'
p930
aS'Yeah ,but I hate when you blow really hard and it explodes all over your face.\n'
p931
aS"I can't believe it's so tiny.\n"
p932
aS'come on!\n'
p933
aS'just put it in your mouth and blow!\n'
p934
aS'Well, my husband is pretty big, and I want him to be able to get in and out pretty easily.\n'
p935
aS"I'm sucking, but nothing's coming out!\n"
p936
aS"No honey, not that hole, it's too small I don't think it will fit, try again!\n"
p937
aS"I'm squeezing it but nothing's coming out on me\n"
p938
aS"You're going to have to take it out and turn it around then then put it back in because it's too big and wet\n"
p939
aS"I'm trying to stretch my hole\n"
p940
aS'Aim for the Mouth!\n'
p941
aS"That's fine.\n"
p942
aS"It's better when you go deep.\n"
p943
aS'You just get a little in your mouth, and be sure to blow really hard.\n'
p944
aS"You're right, its smaller than it looks, I thought it was bigger.\n"
p945
aS'This piece is too big...I cant fit it in my mouth.\n'
p946
aS"Don't poke it with a stick.\n"
p947
aS'Just run off and play with your balls.\n'
p948
aS"Well you need to either keep it in your mouth or don't put it there in the first place.\n"
p949
aS"We're almost done, keep stroking.\n"
p950
aS"Will you just stick your thing in me so it won't hurt me anymore?\n"
p951
aS'Because I REALLY want to do this.\n'
p952
aS"I didn't touch your thing, but its up\n"
p953
aS'just angle your body right and that sucker in.\n'
p954
aS'What the fuck!\n'
p955
aS"Don't you know how to aim, you got me right in the eye!\n"
p956
aS'Does anyone have a rubber I can borrow, I will give it back after I finished with it.\n'
p957
aS'stop playing with that.\n'
p958
aS"You'll stretch it out and then I can't use it\n"
p959
aS"it's all slimy cause I was sucking on it.\n"
p960
aS'Wow that really shot out of there.\n'
p961
aS'I need another six inches.\n'
p962
aS"My hand's getting kinda tired.\n"
p963
aS'Does anyone else wanna beat this?\n'
p964
aS"Don't blow yet, just try fingering it first.\n"
p965
aS'No fair!\n'
p966
aS'He came right between my legs!\n'
p967
aS"Shane, why can't you just come earlier and leave sooner?\n"
p968
aS'Yeah, it was a big scary one.\n'
p969
aS'I was shaking it lasted so long!\n'
p970
aS'Help me, I cant seem to get it to go in!\n'
p971
aS'Alright, come on, girls on top, boys on the bottom\n'
p972
aS"You're sticking it in the wrong hole!\n"
p973
aS'My hands are still slippery from earlier.\n'
p974
aS'Maybe we should try something horny.\n'
p975
aS'Hmm...I like anything that can fit in my mouth.\n'
p976
aS"I'm having trouble putting it into this hole here.\n"
p977
aS'omg you squirted it in my eye you bastard, it burns!\n'
p978
aS'Oh come on!!\n'
p979
aS"If it's really tiny, we'll just ride it twice!\n"
p980
aS"It's OK, bigger things have been shoved in there.\n"
p981
aS"I'm in an awkward position.\n"
p982
aS'ughh it hurts when I swallow\n'
p983
aS'stop blowing it or you will hurt yourself!\n'
p984
aS"You can't go that fast when it's this tight!\n"
p985
aS'No way that is too big!\n'
p986
aS'Are they stuck in the hole?\n'
p987
aS"It's the wettest thing in the world.\n"
p988
aS"Hey, I'm getting pretty good at this!\n"
p989
aS"It's easier than I thought it would be!\n"
p990
aS'It came, it finally came...THE BIG ONE.\n'
p991
aS'oh, you probably have to wiggle it around then it will slide in.\n'
p992
aS"It's in right!\n"
p993
aS"Why does it hurt so much, it's not like it's my first time or anything!\n"
p994
aS'wow you are the perfect length for me right now.\n'
p995
aS"I guess I was so excited that I just couldn't wait to get it in my mouth.\n"
p996
aS'Remind me never to put something so big and... hard in my mouth again.\n'
p997
aS'It really tore it up.\n'
p998
aS'You can try and stick it in there but its going to get really tight.\n'
p999
aS'Hot damn that hurt, but it was a good hurt.\n'
p1000
aS'I broke a sweat.\n'
p1001
aS'A major sweat.\n'
p1002
aS'Just stick it in there, fill it up, and pull it back out.\n'
p1003
aS"I don't understand why it gets so big.\n"
p1004
aS"Be patient, I know it's hard and the floor is uncomfortable, but I'm almost finished.\n"
p1005
aS"Oh it's your first time!\n"
p1006
aS'Need any help?\n'
p1007
aS'The faster you bang it, the more it hurts\n'
p1008
aS"That's right, you can't stick it in if there's one in there already.\n"
p1009
aS"We'd love to be sitting on your face\n"
p1010
aS"I can't blow harder, it's too much.\n"
p1011
aS'It seemed like it would be easy to do, but it was just so hard!\n'
p1012
aS"And after all that he didn't even like what I did so I had to do it again!\n"
p1013
aS'He can do magical things with his fingers\n'
p1014
aS'Put it in and then you can come inside.\n'
p1015
aS'the longer you play with it, the harder it gets.\n'
p1016
aS'No, no!\n'
p1017
aS"Don't take it out!\n"
p1018
aS'It wont go back in!\n'
p1019
aS'Here put it in my hands and ill lick it from the bottom for you\n'
p1020
aS'I could get this in!\n'
p1021
aS'I could get this in!\n'
p1022
aS'I just need to squeeze it tight and push it in quickly.\n'
p1023
aS'Head is important, and make sure you give a lot of it to your customers.\n'
p1024
aS"just put it in the back of your throat and don't think about it.\n"
p1025
aS"I thought you'd examine before you put it in your mouth!\n"
p1026
aS'Just taste it, and then spit it out.\n'
p1027
aS"Don't swallow.\n"
p1028
aS"I just can't believe that huge thing explodes 8 to 12 times every day!\n"
p1029
aS'Yeah whenever you stuff it too much, it rips.\n'
p1030
aS"Don't blow too hard, you don't want it all over your face.\n"
p1031
aS'Its harder to keep in when its thin.\n'
p1032
aS'It just keeps falling out.\n'
p1033
aS'I keep swallowing the white stuff, but it keeps on coming!\n'
p1034
aS"it's too big, I can't receive it.\n"
p1035
aS'my hands hurt can we take a break.\n'
p1036
aS'the harder you go, more will come out.\n'
p1037
aS'You have to use two fingers.\n'
p1038
aS'So we can use either hole, right?\n'
p1039
aS'It was really big and uncomfortable in my mouth\n'
p1040
aS"Darling it's better down where it's wetter, take it from me.\n"
p1041
aS'Can you STOP making my hole bigger!\n'
p1042
aS'Well yeah, big things are more fun.\n'
p1043
aS'You just have to get it wet then shove it right in!\n'
p1044
aS"once you suck all the juice out, it's pretty much good for nothing.\n"
p1045
aS'I saw you at your game last night but the worst part of it is I was sooo wet.\n'
p1046
aS"It's always important to have two balls, so that when he's playing with one, you've got the other.\n"
p1047
aS'Just stick it in so you can come already!\n'
p1048
aS'NOOOO, you went in too deep.\n'
p1049
aS"I can't stop it when you're going so hard!\n"
p1050
aS"Stop it, you're making me all wet!\n"
p1051
aS'This position is really rough on my back.\n'
p1052
aS'I should blow this as hard as I can\n'
p1053
aS"It's so big I doubt I can fit it all in my mouth.\n"
p1054
aS"It's all over my face!\n"
p1055
aS'Yeah, the head is too big!\n'
p1056
aS'I can blow good!\n'
p1057
aS'Now see this wood is hard.\n'
p1058
aS'If you run your hand down the side you can feel the density and firmness\n'
p1059
aS'There is no way that will fit in there!\n'
p1060
aS'Just look at how tight it is!\n'
p1061
aS'Adam stop spraying my face!\n'
p1062
aS"You're making me all wet!\n"
p1063
aS'Long strokes are more efficient.\n'
p1064
aS'You can finish in half the time.\n'
p1065
aS'Short strokes tire you out faster.\n'
p1066
aS"I keep sucking but it's not coming!\n"
p1067
aS'Is it going to get bigger?\n'
p1068
aS"I scream when I'm wet!\n"
p1069
aS"That's even bigger than I thought!\n"
p1070
aS'How about we finger it first?\n'
p1071
aS'it is a little tight but your small so you could fit.\n'
p1072
aS'Get your hand out of there!\n'
p1073
aS"You're gonna stretch it out!\n"
p1074
aS'push in, pull out, push in, pull out.\n'
p1075
aS'Aww, Daniel, I told you you should have put it in more!\n'
p1076
aS"I don't know, it's so hard.\n"
p1077
aS"I didn't get my mouth over it before it shot out, but it all shot in my mouth anyway.\n"
p1078
aS'If this were any harder it would break my fake teeth!\n'
p1079
aS'Because I want something small that I can suck on.\n'
p1080
aS'Just sit on it till he comes and goes away\n'
p1081
aS'Chris, how can I do you, you are too big!\n'
p1082
aS'Ok coach, it just hurts my back to do this\n'
p1083
aS"I didn't realize it squirted that much\n"
p1084
aS"you do know I'm faking it right\n"
p1085
aS"We don't need this since you already know how to eat out.\n"
p1086
aS"I can't get in in gently and I don't wanna just shove it in\n"
p1087
aS"That was pretty big, but it could've been bigger!\n"
p1088
aS"No no, its way to thick and those heads are massive, they'll penetrate too far.\n"
p1089
aS'You have to pull it out before it does any damage.\n'
p1090
aS"It's too big!\n"
p1091
aS"I can't put two hands around it!\n"
p1092
aS'you have to squeeze it before you put it in.\n'
p1093
aS"You're doing it wrong!\n"
p1094
aS"You're sticking it in the wrong hole!\n"
p1095
aS"It will do, I've fit bigger ones in.\n"
p1096
aS'Oh my god, this just keeps getting harder and harder!\n'
p1097
aS"I've been sucking on this thing all day and it doesn't feel any smaller, just stickier!\n"
p1098
aS'He gets so deep.\n'
p1099
aS"Nobody's ever been that far inside, and it feels so good to just release it all for him!\n"
p1100
aS"Is it gonna be longer than 6 inches because that's all I can do.\n"
p1101
aS"That's it, I give up.\n"
p1102
aS'It was fun at first but then it just got harder and harder, and I kept falling off it.\n'
p1103
aS'you need to pull it out, lick it, and stick it back in!\n'
p1104
aS"Okay you just gotta swallow it fast 'cuz if you let it sit too long in your mouth, it will be too creamy to swallow!\n"
p1105
aS"No matter what I do I'm never going to get this to fit in here!\n"
p1106
aS"No, I just suck on 'em and swallow.\n"
p1107
aS"I can touch it, but i can't bang it\n"
p1108
aS"You're gonna get in it and you're gonna like it.\n"
p1109
aS"If there's anything I'm an expert at, is making things fit into small spaces!\n"
p1110
aS'That was awesome but, now I am all wet.\n'
p1111
aS'This is gonna be good!\n'
p1112
aS'I can already feel it!\n'
p1113
aS"I'm trying but its kind of hard to do with only one hand.\n"
p1114
aS"It's shrinking, I can feel it!\n"
p1115
aS'Just stick it in the hole.\n'
p1116
aS'Just put it in your mouth.\n'
p1117
aS"I'm sure it tastes better than it looks.\n"
p1118
aS"It's harder when it's longer, isn't it?\n"
p1119
aS"Honey, I don't think this is going to fit!\n"
p1120
aS"Jacob, put your bone back in your pants, and don't let me see you playing with it for the rest of the night.\n"
p1121
aS"It's huge!\n"
p1122
aS"It'll never fit inside.\n"
p1123
aS'Maybe we should grease it?\n'
p1124
aS"That's a really big squirt!\n"
p1125
aS"i have 2 balls in my mouth, I'm gonna put another in and blow\n"
p1126
aS'suck it up and stick it in, I have places to go.\n'
p1127
aS'Oh that got bigger than I thought\n'
p1128
aS'Do you go all the way or do you pull out?\n'
p1129
aS"That's not fair, this one is three times more likely to give you head than tail.\n"
p1130
aS'Oh God!\n'
p1131
aS"There's just so much of it!\n"
p1132
aS"I can't swallow it all at once!\n"
p1133
aS'It was long and hard...I mean 2 late nights in a row.\n'
p1134
aS'Looks like someone trimmed that bush.\n'
p1135
aS'Crap, now I have all this white sticky stuff on my hands!\n'
p1136
aS"I cant believe how small he is, I thought he'd be bigger.\n"
p1137
aS'I was going to tell you not to blow your load too early.\n'
p1138
aS'oops, I think my tailpipe just got stuffed.\n'
p1139
aS'I could do this for hours!\n'
p1140
aS"I can feel it, but I don't know who it is.\n"
p1141
aS'can you help me with this?\n'
p1142
aS"I can't get my hand around it.\n"
p1143
aS'you just had to open your mouth and then he came.\n'
p1144
aS"I don't want to suck on this anymore, but since I don't have anywhere else to put it, I guess I might as well just put it back in my mouth, at least it still tastes good.\n"
p1145
aS'my hands are busy just put it in my mouth.\n'
p1146
aS'you just have to shove it in & pump hard.\n'
p1147
aS"He can't get it in!\n"
p1148
aS'His hand is shaking too much!\n'
p1149
aS'Find the hole with the tip and put it in.\n'
p1150
aS'If you miss you will hear a sound.\n'
p1151
aS'Push hard and keep it straight.\n'
p1152
aS"Take your time so you don't mess up.\n"
p1153
aS'give me three more inches.\n'
p1154
aS'I love it when black guys go deep.\n'
p1155
aS"yea I've been blowing all day and it just keeps on coming\n"
p1156
aS'You stick it in and take it out, the second time is going to be harder.\n'
p1157
aS"When you take it out the second time it may be sticky and wet, so don't play with it.\n"
p1158
aS'Then the third time it will be smooth slick and easy to take out.\n'
p1159
aS"It's hard being on top.\n"
p1160
aS'How much wetter can you possibly want it?\n'
p1161
aS"Put it in deep and don't pull out.\n"
p1162
aS"It's delicious.\n"
p1163
aS'So thick, and so juicy.\n'
p1164
aS'It goes in easier when its wet!\n'
p1165
aS"thats the thickest I've ever seen it.\n"
p1166
aS"OMG it's so hard to get it all down!\n"
p1167
aS"Wow these are the two hardest balls I've felt all day.\n"
p1168
aS"it's okay though, I just swallowed it and kept going like a trooper!\n"
p1169
aS'Oh my God!\n'
p1170
aS"I'm blowing all these guys!\n"
p1171
aS"It's finally in!\n"
p1172
aS'That was really deep Kevin.\n'
p1173
aS'Dammit, it got stuck again!\n'
p1174
aS"yes I'll have mine white and twelve inches.\n"
p1175
aS'I like the extra meat.\n'
p1176
aS"I get so impatient, it's just so big and juicy all I want to do is swallow it.\n"
p1177
aS'Your thing is too big for my hole.\n'
p1178
aS"careful that one's really hard and slippery.\n"
p1179
aS'Why is it so long!\n'
p1180
aS"it might be in there, but it's so small I don't feel it.\n"
p1181
aS'Oh God, it squirted all over my face!\n'
p1182
aS'sometimes when you ride too long, you get wet\n'
p1183
aS'Hey we came at the same time!.\n'
p1184
aS'Oh my gosh!\n'
p1185
aS'Does all that have to fit in there?!\n'
p1186
aS'Its too big for me to work with\n'
p1187
aS"I'm still wet from this morning!\n"
p1188
aS"I was standing there and was like, I always ride the big one, why isn't it coming?\n"
p1189
aS'The more I play with it, the harder it gets!\n'
p1190
aS"Don't press too hard or you'll break it.\n"
p1191
aS"I give up, I don't know how to turn you on.\n"
p1192
aS"I can't find the other ball, there is only one here\n"
p1193
aS"oh f*** i cant take this, it's hurting my butt.\n"
p1194
aS"Stick it in that hole, but hurry up, I'm getting wet!\n"
p1195
aS"Why is your stick shorter than the rest I've seen?\n"
p1196
aS"Yes, I'm good at oral!\n"
p1197
aS'do you need help laying that pipe?\n'
p1198
aS'Or can you get it in there?\n'
p1199
aS'It was absolutely huge,much bigger than any of the ones you would have seen before.\n'
p1200
aS"I can't take it, its too long!\n"
p1201
aS'it was big and black so I had to run.\n'
p1202
aS'Be careful!\n'
p1203
aS"Don't stick the whole thing in your mouth, it's too big and you'll choke!\n"
p1204
aS'when he did it, it hurt so bad i teared, but then after the pain subsides and now it only hurts if i touch it.\n'
p1205
aS"Just as soon as I'm done doing her, I'll come.\n"
p1206
aS'Hold on!\n'
p1207
aS"I can't get it to go in, I don't know what to do.\n"
p1208
aS"Now that's some good fingering.\n"
p1209
aS"Don't you dare put that thing back in there!\n"
p1210
aS"I've seen longer.\n"
p1211
aS"It's stuck again, help me get it out!\n"
p1212
aS'This thing is huge.\n'
p1213
aS"There's no way I'm gonna fit all this in my mouth.\n"
p1214
aS'Slide in all the way.\n'
p1215
aS'Three will do me...\n'
p1216
aS"I had six once and couldn't walk.\n"
p1217
aS"It didn't fit in mine either but I just stuck it in.\n"
p1218
aS"Sarah get me a wet paper towel,  I got it all over my leg and it's dripping\n"
p1219
aS"Oh, I'm just going to give it to you orally.\n"
p1220
aS'What the hell is wrong with you?!\n'
p1221
aS'I couldnt get all that meat in my mouth even if i push it in all the way down my throat.\n'
p1222
aS"Mr. Colby's was really long and hard, but Mr. Morris's was short.\n"
p1223
aS"I'm a good blower!\n"
p1224
aS'Keep trying.\n'
p1225
aS"It's had a lot of fingers in it before.\n"
p1226
aS"I don't like them when they are soft, I like them when they're firm and hard.\n"
p1227
aS"I can't get it in there!\n"
p1228
aS'I love the ding-dongs.\n'
p1229
aS'They are long and feel amazing when they enter your mouth!\n'
p1230
aS"It's not longer, it's just harder\n"
p1231
aS'Stop jerking it so hard,its gonna break!\n'
p1232
aS"It might be a couple of minutes, I can't get it in!\n"
p1233
aS'Do we have to stay on top of you the entire night?\n'
p1234
aS'Oh man!\n'
p1235
aS'I squirted!\n'
p1236
aS"That was so bad I'm gonna give you another chance.\n"
p1237
aS"It's dragging on the floor!\n"
p1238
aS"There's too much meat in my taco!\n"
p1239
aS"it'll grow bigger, even if it might look weird at first, just let it grow.\n"
p1240
aS"that burned my throat.. seriously i couldn't swallow.\n"
p1241
aS'Why is it every time you come, you get wet?\n'
p1242
aS"I'm always banging something.\n"
p1243
aS"Its longer then I'm used to, but I handled it okay.\n"
p1244
aS'you know i really feel like there is something powerful between my legs.\n'
p1245
aS"yeah, just give it a tug and it'll come.\n"
p1246
aS"Yeah, but I've blown bigger ones, just didn't take pictures.\n"
p1247
aS'I love it so much!\n'
p1248
aS"Look, it's pink on the inside!\n"
p1249
aS'Stop slapping it like that!\n'
p1250
aS'Just smoothly slide it in!\n'
p1251
aS"It's not my fault!\n"
p1252
aS'You pulled out too fast!\n'
p1253
aS"His head just won't fit!\n"
p1254
aS"It's too big!\n"
p1255
aS"it's a white anaconda!\n"
p1256
aS'You got it all over my face and in my hair, stop spraying all over me.\n'
p1257
aS'its not long.\n'
p1258
aS"It won't take you a lot of time\n"
p1259
aS'I touched it and was all hard!\n'
p1260
aS"I can't get it back in.\n"
p1261
aS"It's okay, you can put two in at once.\n"
p1262
aS"it turns me off because it's so thick but it's still pretty good.\n"
p1263
aS"I shouldn't yell or it might come in my mouth.\n"
p1264
aS"It's hard to get really deep.\n"
p1265
aS"I can't stuff it in there.\n"
p1266
aS'I need you to help me.\n'
p1267
aS'I want the thickest one!\n'
p1268
aS'You just need to stick it in there real good.\n'
p1269
aS'Are you using the one or two finger attack?\n'
p1270
aS"it's fun to play with, but I don't wanna stretch the hole.\n"
p1271
aS"It's full!\n"
p1272
aS"I can't fit anymore in it.\n"
p1273
aS'i felt it penetrate, but once it was in and it released all the liquidy stuff i couldnt feel it.\n'
p1274
aS'But now it aches like f*ck\n'
p1275
aS'Everytime I take it out this stuff gets all over my mouth\n'
p1276
aS'Awww man, I wish it was longer!\n'
p1277
aS'you just need to stick it in and push!\n'
p1278
aS"Wow it's a tight fit to get in there hey?\n"
p1279
aS"Why would anyone want to shove something that big in someone's mouth?\n"
p1280
aS'I just put the whole thing in my mouth and suck on it.\n'
p1281
aS'Well at least I can fit in now\n'
p1282
aS"I don't know how it got so big and heavy, but it went in good!\n"
p1283
aS'God, its just so big.\n'
p1284
aS'And it bulges out there!\n'
p1285
aS'That was the least suspenseful thing I ever saw.\n'
p1286
aS'There was no climax, and I think the whole production lacked energy.\n'
p1287
aS"Damn that shit is going back and forth so fast i can't even see it.\n"
p1288
aS"Come on guys, 69 isn't even that hard.\n"
p1289
aS'Someone do 69 infront of the class now.\n'
p1290
aS'It only takes the skinny ones too, every time I try putting a bigger one in that tiny hole, the entire thing gets jammed!\n'
p1291
aS'Holy moly!\n'
p1292
aS'Six inches?!\n'
p1293
aS"That's insane!\n"
p1294
aS"I didn't see him coming so I had to switch sides.\n"
p1295
aS'You need a wet finish.\n'
p1296
aS'Everyday I get rode on.\n'
p1297
aS'First thing in the morning, I wake up and someones riding on me, its not just guys either, girls too.\n'
p1298
aS"I get rode on long and hard and they just won't stop.\n"
p1299
aS"I'm just tired of being ridden on while I'm not ready\n"
p1300
aS"I know that took a lot of bouncing around, but aren't you glad that we did it together instead of you having to do it alone?\n"
p1301
aS'i replied\n'
p1302
aS'That hole is so hairy!\n'
p1303
aS"It doesn't matter.\n"
p1304
aS"I'll suck on both.\n"
p1305
aS'Why are you so hard right now?\n'
p1306
aS'I want to see balls!\n'
p1307
aS'it was long and hard and boring\n'
p1308
aS'you have to go in hard and come out wet and breathless.\n'
p1309
aS"You'll feel good when you're done.\n"
p1310
aS"That's okay we can just use lotion to get it off\n"
p1311
aS'just shut up and shove them in!\n'
p1312
aS'You have to suck on it to make it a little bit to make it more slippery.\n'
p1313
aS'Get it out!\n'
p1314
aS'Get it out!\n'
p1315
aS'It hurts!\n'
p1316
aS"But that's a big hole!\n"
p1317
aS'I love Dicks!\n'
p1318
aS"I know that as soon as I take my top off, he's going to come.\n"
p1319
aS"I was gonna grab the biggest one, but on an impulse I grabbed the small one, and it was the best choice I've ever made.\n"
p1320
aS'squeeze it hard..massage it...pull it till all the color comes out...yes it can get a little dirty\n'
p1321
aS'oh i loved it, i could ride that thing all day long\n'
p1322
aS'keep comming until I say stop.\n'
p1323
aS"i'll be wet before i get it up\n"
p1324
aS"You jerk him 'til he comes.\n"
p1325
aS'Oh sorry, that just fell out my box.\n'
p1326
aS'oh wow that was so huge, but I just had to put it all in my mouth\n'
p1327
aS'I have a black man inside of me!\n'
p1328
aS'All the time!\n'
p1329
aS"I like the taste of them, I just don't like the feel of them in my mouth so I just suck on them.\n"
p1330
aS"i can't feel my thighs or my ass, but i want to go again!\n"
p1331
aS'I know you end up feeling light headed, its easier if you hold them tighter otherwise they end up going all over the place.\n'
p1332
aS'Do you have any idea how long and hard I had to work to get her to come?\n'
p1333
aS'Let alone, twice!\n'
p1334
aS'do it like I did it last night, knees on the floor.\n'
p1335
aS"if their toes didn't curl you didn't do it right\n"
p1336
aS"just keep trying, when i did it first i wasn't good either then i got better.\n"
p1337
aS'but u have to do it in front of me and put it all in your mouth.\n'
p1338
aS'Wait, why is it all over my face and not all over yours?\n'
p1339
aS"Size doesn't matter, it's how you use it\n"
p1340
aS'Dont you dare take that out of there!\n'
p1341
aS'excuse me, how do i suck on these balls?\n'
p1342
aS'Wow, you got me all wet and sticky.\n'
p1343
aS"I don't like a mouthful, I just like the taste.\n"
p1344
aS'Can we do this without talking?\n'
p1345
aS'it will only hurt the first couple of times.\n'
p1346
aS"oh it doesn't matter the longer the better.\n"
p1347
aS'He would make a terrible father because as soon as it came close to the end he would just pull out.\n'
p1348
aS"My hands are too small and it's too big, I can't grip it\n"
p1349
aS'can you go down, i need to finish\n'
p1350
aS"It's just not fair, he keeps dangling it in my face and he just won't give it to me!\n"
p1351
aS'You know how that thing pops up?\n'
p1352
aS'It was very little.\n'
p1353
aS"You want to go in there, don't you big boy?\n"
p1354
aS'Oh, you really gotta put the whole thing in your mouth, or else all the stuff comes out all over ya\n'
p1355
aS"I just can't seem to get it in the hole!\n"
p1356
aS"I'm Coming, I'm Coming.\n"
p1357
aS'It just takes soooo long for me to get there.\n'
p1358
aS'ewww its all dirty, i dont wanna lick that\n'
p1359
aS"I'm not even going to touch that one I'm just going to sit on it.\n"
p1360
aS'There should be a hole right around here where you can stick the staff in.\n'
p1361
aS'Hopefully it fits.\n'
p1362
aS'Stop forcing me in already!\n'
p1363
aS"When I'M ready I'll come!\n"
p1364
aS'how big is this thing gonna get?\n'
p1365
aS"So I guess you can't be trusted with anything bigger in your mouth,\n"
p1366
aS"Put it in, you'll like it.\n"
p1367
aS"They're going to keep coming like a rain that never ends.\n"
p1368
aS"I'm sorry, I can't swallow this one.\n"
p1369
aS'Could you whip it out for me?\n'
p1370
aS"18 inches puts it here, we're gonna have to go in a little farther.\n"
p1371
aS"Hey, just because you got off doesn't mean I did.\n"
p1372
aS'If it went any deeper i probably would have thrown up all over it.\n'
p1373
aS'When you come use the backdoor\n'
p1374
aS'He whipped it out, tried to squirt it in my mouth, but he missed and got it all over my face!\n'
p1375
aS"Now he's taken it out.\n"
p1376
aS'It looks pretty big.\n'
p1377
aS"It's all stretched out from your giant head.\n"
p1378
aS'Stop, the more you rub it, the more it comes!\n'
p1379
aS"I need to get better at blowing, I'm choking on it too much\n"
p1380
aS'Careful, its real slippery in there\n'
p1381
aS"I'm so glad you made me come.\n"
p1382
aS"You keep trying, but you can't get it in!\n"
p1383
aS"it's not even wet yet, and u wanna go faster?\n"
p1384
aS"Give me the thingy, I know how to work it,I'll just stick it in.\n"
p1385
aS"you didn't let me finish!\n"
p1386
aS"I really had to push that thing in because it wasn't fitting.\n"
p1387
aS'This is great.\n'
p1388
aS"It's one quick gulp then you're ready for another.\n"
p1389
aS"I guess we'll have to do it orally.\n"
p1390
aS"Oh don't worry, when they see you coming they pull it out.\n"
p1391
aS'I did a load of blacks last night, they were all in there...\n'
p1392
aS"I'm a little suprised, its not usually that quick.\n"
p1393
aS"Just for that, I'm gonna whip it out and play with it.\n"
p1394
aS'Its a little stiff, but I can manage\n'
p1395
aS'i cant get it out of my throat!\n'
p1396
aS'its like stuck in there!\n'
p1397
aS'Yeah, look how wide her mouth opens!\n'
p1398
aS'i was just about to come and then you knocked\n'
p1399
aS"be careful, it's all wet and slippery.\n"
p1400
aS'WOW you must suck fast!\n'
p1401
aS"My backdoor is not working, you'll have to use the front door.\n"
p1402
aS"Look at the size of the things they're blowing!\n"
p1403
aS"It's huge!\n"
p1404
aS'Wow, I put the whole thing in my mouth.\n'
p1405
aS'I like to be on top of you to make sure you finish the work\n'
p1406
aS'omg it just popped out in my face!\n'
p1407
aS"No, it's ok because i don't bite, I only suck.\n"
p1408
aS"it better taste good, cause it's coming fast.\n"
p1409
aS'Wow I hope i can fit it in my mouth\n'
p1410
aS'it gets stuck a lot, so you have to push really hard.\n'
p1411
aS"It's long but not hard\n"
p1412
aS"Don't worry, I can totally handle a big one.\n"
p1413
aS"Don't shove that big thing in my mouth!\n"
p1414
aS"Yeah, it's so big but my opening is so small.\n"
p1415
aS"I'll do it later.\n"
p1416
aS"I don't want him to come while I'm down there.\n"
p1417
aS"My throat's numb!\n"
p1418
aS"I'm ready to go!\n"
p1419
aS"It's not my fault!\n"
p1420
aS"I can't make this thing blow any faster!\n"
p1421
aS'We almost had a problem.\n'
p1422
aS'I didnt think the hole was big enough.\n'
p1423
aS'small on size, but big on pleasure\n'
p1424
aS'Oh yes, the long, thick ones are hard to maneuver without suffocating.\n'
p1425
aS"You can't dance beneath me when there's monster between my legs.\n"
p1426
aS"I scream really loud when it's hard.\n"
p1427
aS'I keep sucking and sucking and sucking as hard as I can but nothing is coming out!\n'
p1428
aS'just blow and finger.\n'
p1429
aS'Its to big to fit in, unless I twist it the right way.\n'
p1430
aS'Or maybe if it was wet it would slide in better!\n'
p1431
aS'You have to jerk it off to get it to come out\n'
p1432
aS'wow thats a big wiener to be putting in your mouth.\n'
p1433
aS'We have to make this a quickie, in and out.\n'
p1434
aS'I wanted to take a picture but I made it too big.\n'
p1435
aS'stick it in slowly then pull it out really fast.\n'
p1436
aS'My fingers are too small, my hands cramp up!\n'
p1437
aS"It's just too hard!\n"
p1438
aS'I think Zach just put a load in\n'
p1439
aS"oh it doesn't matter the longer the better.\n"
p1440
aS"I'm better on bottom.\n"
p1441
aS"oh my god, it's way to big it won't fit.\n"
p1442
aS"If it gets stuck, don't worry.\n"
p1443
aS'Just wiggle it a little, and it will come out.\n'
p1444
aS"If it weren't for me half these guys wouldn't even have wood\n"
p1445
aS"I can't wait to put this in my mouth!\n"
p1446
aS'It was horrible...probably the most disgusting thing I ever put in my mouth!\n'
p1447
aS'It just kept gushing out.\n'
p1448
aS"just pull it out while you're sucking on it.\n"
p1449
aS'Dammit it fell out.\n'
p1450
aS'You may be able to get it to fit, but it is a really tight space.\n'
p1451
aS'Oh, I like this one better.\n'
p1452
aS'Its bigger!\n'
p1453
aS'liked to suck on them until they get soft.\n'
p1454
aS'Great job.\n'
p1455
aS'You were really pounding those balls out there.\n'
p1456
aS"it's dripping down my leg\n"
p1457
aS'from up here it sounds like your sucking start blowing.\n'
p1458
aS"I'll have a 12 inch Italian.\n"
p1459
aS"It is really big, but I find if you got at it from the side it's a little easier.\n"
p1460
aS"I'm too tired to get that off with my hand.\n"
p1461
aS'Stop putting that white stuff all over my face\n'
p1462
aS"Fine, don't pull out, see if I care!\n"
p1463
aS"It's just so hard being on my knees doing it!\n"
p1464
aS"It's okay, I'll let you put it in anywhere you want the first time.\n"
p1465
aS'Hurry up and put more in your mouth.\n'
p1466
aS"You'll never finish in time at that rate.\n"
p1467
aS"Oh c'mon, take it out again and let me play with it!\n"
p1468
aS'32 inches is too big for the bedroom.\n'
p1469
aS'lubricate the rod before putting it into the hole.\n'
p1470
aS"Well, it's not so bad once you get in your mouth.\n"
p1471
aS'how about I rub and you squirt?\n'
p1472
aS'what are my chances of getting head 3 times?\n'
p1473
aS"Oh my God, if you're going to come halfway in then just stay out!\n"
p1474
aS"It's right here between your legs!\n"
p1475
aS"I've been playing with it for a while but all I could get was a little squirt.\n"
p1476
aS"Wow that was pretty good, but i bet you can't do it twice in a row.\n"
p1477
aS'This morning I blew it so hard I thought I was going to throw up.\n'
p1478
aS"It's big enough you can feel it.\n"
p1479
aS'come one man, two straight days will wear a girl out!\n'
p1480
aS'Wow baby, you sure were a trooper taking all those balls to the face\n'
p1481
aS"Just shove it in, honey, it'll be okay\n"
p1482
aS"Yea it's been awhile since I've done it, so I bled a lot, but now it feels great!\n"
p1483
aS'You suck and suck and suddenly you get a load in the back of your throat\n'
p1484
aS"This is way too small, it just doesn't feel right.\n"
p1485
aS'So how do you know when to pull out?\n'
p1486
aS"I can't fit it in my mouth!\n"
p1487
aS'The cream keeps coming out and getting all over my hands!\n'
p1488
aS'Jeez, how many inches is that?\n'
p1489
aS'Damn, this is a tight fit.\n'
p1490
aS'When u screw it the stuff comes out!\n'
p1491
aS"Aww man, now i've got a huge stain on my shirt from a big old piece of wood.\n"
p1492
aS'I was waiting for you to stick your hand up in there\n'
p1493
aS'your rod and shaft comfort me in great pleasure\n'
p1494
aS'I can only eat a six inch\n'
p1495
aS"But it doesn't feel that long.\n"
p1496
aS"I'm going to just close my eyes, lean back, and wait for you to finish.\n"
p1497
aS'i like to eat it plain because its long and juicy once you lick it enough.\n'
p1498
aS'Does he really need to back up that far to pull out?\n'
p1499
aS"Well you stuck it in there and I couldn't get it out.\n"
p1500
aS"If you don't open your mouth, it WILL go other places!\n"
p1501
aS'I like the bigger ones cuz they last longer\n'
p1502
aS'Hold on this will be amazing, if I can find it.\n'
p1503
aS'The more you wiggle, the tighter it gets.\n'
p1504
aS'remind me that I need a 12 inch piece of wood.\n'
p1505
aS"Oh yeah I'm fine.\n"
p1506
aS'I just had something stuck in my throat\n'
p1507
aS'get inside, you can fit!\n'
p1508
aS"Try hard, Do your best it's only a test of how well you can do.\n"
p1509
aS'If you need help measuring get some help.\n'
p1510
aS'You want to be good when your doing it.\n'
p1511
aS"That's easy!\n"
p1512
aS'You suck on it, the stuff comes into your mouth, and then you swallow.\n'
p1513
aS'Use two hands, and put all your strength into it\n'
p1514
aS"You don't SUCK it, you BLOW it.\n"
p1515
aS'it needs to be long and fat.\n'
p1516
aS"Now don't jerk it too much or it'll fall off.\n"
p1517
aS"Oh my god it's so big!\n"
p1518
aS'And furry!\n'
p1519
aS'Stick it in, then take it out in 20 minutes.\n'
p1520
aS"I can't take it.\n"
p1521
aS"It's too big.\n"
p1522
aS'Stop talking and put some effort into it!\n'
p1523
aS"Wow this is big, i don't know if i can fit this in my mouth.\n"
p1524
aS'We were grabbing some balls and they kept slipping out of our hands\n'
p1525
aS'Oh my god!\n'
p1526
aS'I love the taste of this!\n'
p1527
aS"It's too big we have to move it around to get it out.\n"
p1528
aS'Now I can handle 3 inches or so, but 6 is just too much to handle.\n'
p1529
aS'Dig deeper!\n'
p1530
aS'Finish hard!\n'
p1531
aS"I'm having fun getting it off, but it keeps going back in my face\n"
p1532
aS'it was too soft.\n'
p1533
aS"I couldn't do anything with it.\n"
p1534
aS"It's not that hard just really long.\n"
p1535
aS'great, there were so much of it, I got it all over my face!\n'
p1536
aS'Too big, I could ride that thing like a horse.\n'
p1537
aS'You went in the out door!\n'
p1538
aS'Not allowed!\n'
p1539
aS"Is that the hardest stick you've got?\n"
p1540
aS"That's very good, I'm so glad you asked.\n"
p1541
aS"Let's do 69!\n"
p1542
aS'I took it out of my mouth and it sprayed all over me\n'
p1543
aS'Yeah but I like it when it hurts\n'
p1544
aS'When are you going to pop up?\n'
p1545
aS"I guess so, but I've seen bigger.\n"
p1546
aS'Take it out before you shoot it!\n'
p1547
aS'it was so much bigger than I expected!\n'
p1548
aS'Just keep on beating it.\n'
p1549
aS"You're not putting it in anytime soon.\n"
p1550
aS'It looks like we have an uneven amount of people, some of us will have to form a threesome.\n'
p1551
aS"No I take it either way as long as it get's the job done.\n"
p1552
aS'Just put it in and hope for the best.\n'
p1553
aS'Holy sh*t!\n'
p1554
aS"It's so large and tender!\n"
p1555
aS'I can barely fit my hands around it!\n'
p1556
aS"It's so fun to squeeze, and hold, and play with.\n"
p1557
aS'It smells good!\n'
p1558
aS'I never thought I would find such perfection!\n'
p1559
aS'Oh that was a great entry boys.\n'
p1560
aS"Don't worry, it'll be quick and painless.\n"
p1561
aS'I can do you right now, actually.\n'
p1562
aS"Well, we're not going to just shove something in, jerk it around, and then pull it out again\n"
p1563
aS'This stick is too long to aim at my lips.\n'
p1564
aS'it would be better with more people but one-on-one could still be fun\n'
p1565
aS'You can stick it where ever you want!\n'
p1566
aS'That guy had a huge load.\n'
p1567
aS"Let me know when you're getting off because I want to come at the same time.\n"
p1568
aS"You'd be amazed by what i can get done in 5 minutes\n"
p1569
aS"It won't come out!\n"
p1570
aS"You think your mouth's big enough, but it's not.\n"
p1571
aS'This thing has been poking me all day.\n'
p1572
aS"Well, if it will get you to come, sure it's my first time.\n"
p1573
aS'Is it hard to blow?\n'
p1574
aS'if any of you need a good fingering, John would be happy to help.\n'
p1575
aS'Damnit, old man!\n'
p1576
aS"I wish you'd pulled out 2 minutes sooner!\n"
p1577
aS'put it back in so it can get hard again.\n'
p1578
aS'I will turn it all on, you put it in, and ill do all the work\n'
p1579
aS'Come on, put your fist in.\n'
p1580
aS'Push in and pull out slowly\n'
p1581
aS'Get out of my bush you little bastard, i just trimmed\n'
p1582
aS'Wow, it shriveled up quickly.\n'
p1583
aS"Wow...that's wet!\n"
p1584
aS'Woah, yours is a long one!\n'
p1585
aS'Boy, the next time you come inside, you better have a good reason.\n'
p1586
aS"Wow, it's so short its embarrassing!\n"
p1587
aS'I love anything with balls.\n'
p1588
aS'My hands hurt, its cold and these balls are too hard.\n'
p1589
aS'I know.\n'
p1590
aS"You're not supposed to rub off on me.\n"
p1591
aS"Gosh I'm so tired of waiting on this im just gunna shove it all in my mouth to get it over with!\n"
p1592
aS"that's because I'm doing it with one hand.\n"
p1593
aS'Oh, my god Nick, you just about made me spit that out, like, EVERYWHERE.\n'
p1594
aS'you look exhausted how many of those did you take?\n'
p1595
aS'Well I normally use three, but whatever you want.\n'
p1596
aS'Without realizing, he said\n'
p1597
aS"Omg, it's soo hot.\n"
p1598
aS"It's all over my mouth and down my throat!\n"
p1599
aS'Oh yeah, Oh yeah, i LOVE the white stuff, its so delicious!\n'
p1600
aS'My boyfriend squirted something on me.\n'
p1601
aS'You need to be long and hard or else if wont go in right and you wont be able to pull out right\n'
p1602
aS"We can't fill 'er up because our hose isn't long enough.\n"
p1603
aS'Are you done in that hole?\n'
p1604
aS'It was hard.\n'
p1605
aS"And something I'd never done before.\n"
p1606
aS'Can you fit your whole fist in there?\n'
p1607
aS'75% definite whiteout conditions.\n'
p1608
aS"There'll be a huge amount of white semi-liquid substance everywhere once the activity has finished near midnight.\n"
p1609
aS'Maybe even missing work tomorrow from getting hit so hard.\n'
p1610
aS'No its small, i can get it in\n'
p1611
aS"You're in the right spot, just try to get in there deep.\n"
p1612
aS"This one's nice and thick.\n"
p1613
aS"Then be quiet, and either spread out, or I'll spread you out myself.\n"
p1614
aS"Why won't it go in?\n"
p1615
aS"It's so small!\n"
p1616
aS'like he only came round for an hour and a half today but he still came\n'
p1617
aS"It won't go in!\n"
p1618
aS"Either it's too big or the hole is too small!\n"
p1619
aS'Do that thing with your fingers, it needs to be a little larger.\n'
p1620
aS'There we go.\n'
p1621
aS'It took us three tries, but we got it up and going.\n'
p1622
aS"Guys are you sure that you wanna go like that, I'm free, I have nothing better to do and if you want I can give each of you a ride if you guys want, especially you michael, you're my favourite.\n"
p1623
aS"You know that i'm just going to keep doing this all day, right?\n"
p1624
aS"It's coming out little by little.\n"
p1625
aS'Coming out squirt by squirt.\n'
p1626
aS"Haha don't bend over, or you'll be screwed!\n"
p1627
aS"yea that's how i like it.\n"
p1628
aS'If I did that harder it would have gone everywhere!\n'
p1629
aS'You have to get it wet or else it will get sticky!\n'
p1630
aS"Wow, it's really short but it seems like you get so much power into in.\n"
p1631
aS"This is so hard, but I'm so hungry, I'd put anything in my mouth.\n"
p1632
aS'Really ?\n'
p1633
aS"It's the biggest one I saw in my whole life !\n"
p1634
aS'well I would need to wet it down before I slide down it.\n'
p1635
aS'OMG they are already hard, I just want to put it in my mouth right now!\n'
p1636
aS"Yeah, well, they're easier to blow when they're big.\n"
p1637
aS"I can't find the hole!\n"
p1638
aS'it might pop in your hand.\n'
p1639
aS'The little ones make it last longer.\n'
p1640
aS"just squirt it in my mouth, but make sure you aim, I don't want it to get all over my face.\n"
p1641
aS"shove it in deeper we don't want it slipping out\n"
p1642
aS"It won't go deeper because it's so big\n"
p1643
aS'Nah, I think he can squeeze it in.\n'
p1644
aS"I'm trying to angle it just right so I get more juices.\n"
p1645
aS'You can try!\n'
p1646
aS"I've been sucking on this thing for ten minutes and haven't gotten anything.\n"
p1647
aS"it's easier to use your hand... it's faster\n"
p1648
aS"Right i'll go down on this one\n"
p1649
aS'Why do you have to put this one here?\n'
p1650
aS'I think they look so much better without the rubber!\n'
p1651
aS"Don't pull it out yet!\n"
p1652
aS"You're not finished!\n"
p1653
aS"I'll scream if you don't give it to me!\n"
p1654
aS'It feels soft, yours is so hard.\n'
p1655
aS"Who am I kidding, if it fits in my mouth I'll give it a go.\n"
p1656
aS'Houston, we have a problem.\n'
p1657
aS"It's too big.\n"
p1658
aS"don't think of it as hard, think of it as a fun experience.\n"
p1659
aS'Well, it was kind of thick and creamy and it was hard to swallow down...it kept getting stuck in my throat.\n'
p1660
aS"no its ok, you don't need to pull it out.\n"
p1661
aS'I want to wrap my fist around it, feel the hair between my fingers and just yank!\n'
p1662
aS"Don't make fun of me, he just got me so wet on that last ride.\n"
p1663
aS'The hole is too small, it wont fit.\n'
p1664
aS'Josh you could be on your second load if you would have done it right the first time.\n'
p1665
aS"Yeah, Pedro and I did it last night, but I'm not sure if it counted because he fell asleep half way through.\n"
p1666
aS'I just kept going though, because I needed to get it done.\n'
p1667
aS'The Trojans were stronger and safer than ever.\n'
p1668
aS'you dont understand its really hard and I keep missing my mouth!\n'
p1669
aS'it just wont go in while im moving!\n'
p1670
aS'Sometimes you have to hit it a few times to make it stay up.\n'
p1671
aS'But once its up it stays there.\n'
p1672
aS'Anything that comes out of a sack tastes terrible!\n'
p1673
aS"Well, I don't like the meat, but I like the flavor of the sauce.\n"
p1674
aS"Well, it's big and black...\n"
p1675
aS"If it wasn't wet, it wouldn't have worked!\n"
p1676
aS"I'm gonna go to the basement now and play with myself.\n"
p1677
aS"Ow don't stick that up my butt, that hurts!\n"
p1678
aS'Okay, I need two large male parts!\n'
p1679
aS'aww, its all loose now!\n'
p1680
aS"I wouldn't.\n"
p1681
aS'I felt it squirt all over my face.\n'
p1682
aS"you can't expect to just put it in, take it out, and it to be finished\n"
p1683
aS'Do you like salty nuts?\n'
p1684
aS'Ive got plenty here in my hand\n'
p1685
aS"Let's wait until it gets thick before we put it in something.\n"
p1686
aS'I like the long, skinny ones.\n'
p1687
aS'Those are very in.\n'
p1688
aS"I can't it's too tight!\n"
p1689
aS"I'm not blowing anymore!\n"
p1690
aS"I'm fingering!\n"
p1691
aS'I keep sucking but nothing will come out!\n'
p1692
aS'wow im getting really lightheaded from all this blowing!\n'
p1693
aS'Are you sure you want to continue unprotected?\n'
p1694
aS"It's too big!\n"
p1695
aS"It won't come out!\n"
p1696
aS'Yeah, I always have to fake it with him too.\n'
p1697
aS'If it were just a little bigger we could all enjoy it!\n'
p1698
aS"Slow down, I can't hear you when I'm bent over and it's plugged in.\n"
p1699
aS"You can't just whip it out and be like, this is a meter.\n"
p1700
aS'Yeah, so I had to sit there and blow it really good so it would be dry.\n'
p1701
aS"it was so big it wouldn't fit in my mouth\n"
p1702
aS"Well, I can't do it as fast with my bad arm.\n"
p1703
aS'why the f*ck would you pull out right when im coming?\n'
p1704
aS"I wasn't expecting it to shoot up in my face like that\n"
p1705
aS"ok don't put to much down my throat, i don't want to choke\n"
p1706
aS'I got in in the hole!\n'
p1707
aS'they should put rubbers on those things\n'
p1708
aS"i don't think you're going to get that out in time.\n"
p1709
aS'your nuts are stuck in my throat\n'
p1710
aS"You've been nailing me all day!\n"
p1711
aS'You got it in my eyes!\n'
p1712
aS"They were open and now they're all wet!\n"
p1713
aS"It doesn't matter how big it is, just how much force you put behind it!\n"
p1714
aS'To open it, just finger it like this and push.\n'
p1715
aS"You gotta wiggle it around a little bit, it's kinda funky.\n"
p1716
aS'It wont work.\n'
p1717
aS'Her hole is bigger than mine.\n'
p1718
aS"God, we've been doing this for, like, an hour and it's still stuck!\n"
p1719
aS"I didn't know if I was supposed to chew it, but it just busted all in my mouth!\n"
p1720
aS'Now it tastes to bad to swallow.\n'
p1721
aS'I always put it in the wrong hole!\n'
p1722
aS"awesome now just keep doing what you're doing and we'll be done in a minute!\n"
p1723
aS'usually you have to jerk it a couple times before it does that\n'
p1724
aS'eww its all coming in my mouth\n'
p1725
aS'Ughhh, I finally managed to swallow it all.\n'
p1726
aS"Ew it's all wet and sticky!\n"
p1727
aS'wow, you are done already...?\n'
p1728
aS'What if it gets stuck in there?\n'
p1729
aS"I am going to have to do it sideways, it's just that big!\n"
p1730
aS'I just want it to vibrate hard enough so that I can feel it no matter what.\n'
p1731
aS"I'd pull mine out, but it's too hard to get out.\n"
p1732
aS'...their mouths stretched in passion.\n'
p1733
aS'this is starting to hurt my ass can we switch positions.\n'
p1734
aS"Watch, I'm gonna put it in that little slit.\n"
p1735
aS'i still use my fingers all the time\n'
p1736
aS'it starts around 11 pm and gets intense at 1 and stays like that till 3.\n'
p1737
aS'Some of them are harder than others, but play with them over the weekend and see how you go\n'
p1738
aS"Now, If you don't come, it's doubled!\n"
p1739
aS'Its not too hard.\n'
p1740
aS'You just have to put it in the right place.\n'
p1741
aS'just stick it in and enjoy it!\n'
p1742
aS"But,I play with it all the time, I just can't stop.\n"
p1743
aS'put it in mine and see if it works\n'
p1744
aS'Ow that hurt!\n'
p1745
aS"But it was fun so i'm going to do it again!\n"
p1746
aS'Well, they should have come sooner.\n'
p1747
aS'No one blows better than me!\n'
p1748
aS'I have cox on demand!\n'
p1749
aS'Just go down already!\n'
p1750
aS'This is so awesome i have three instruments playing in my box at once.\n'
p1751
aS'Yes, but she spit it out!\n'
p1752
aS'ugh, why do we have to do these balls, these are so slippery and big, I really like the dry and small balls.\n'
p1753
aS"I'm the same way.\n"
p1754
aS'I just suck on it until it melts.\n'
p1755
aS"I don't know about your toothbrush, but my finger did a pretty good job this morning\n"
p1756
aS"I'm super sticky (I'm an art student and had been messing with glue all day) I'm dripping wet and the worst part is I assumed it wouldn't come until later on!\n"
p1757
aS'You guys are unloading on me!\n'
p1758
aS'My finger needs a break\n'
p1759
aS"I'm pretty easy to please, you're the hard one\n"
p1760
aS'It was long, hot, and sweaty.\n'
p1761
aS'And then it started coming out of the bottom hole, so i had to lick it up before it made a mess\n'
p1762
aS'OW, why am I always the one taking balls to the face?\n'
p1763
aS'wait you talked to her?\n'
p1764
aS"Oh please don't pull out before I get there.\n"
p1765
aS'Do you always have to be so rough?\n'
p1766
aS"I'm sucking but nothing is coming in my mouth!\n"
p1767
aS"I squeezed too hard, and it's gooey and all over my face.\n"
p1768
aS"You're a quick one.\n"
p1769
aS'Oh my God, it just squirted all over my hand!\n'
p1770
aS'It sucks because the grass is all wet.\n'
p1771
aS'Slippery balls and yuckkk.\n'
p1772
aS'hey, how long is yours?\n'
p1773
aS"but I'm not good at oral!\n"
p1774
aS'Well, you guys are growing up now, so it will be getting harder.\n'
p1775
aS'this is a ball-handling skill.\n'
p1776
aS'I knew it was coming but it surprised me anyway.\n'
p1777
aS"It's hard for you to slide into small spaces.\n"
p1778
aS"Sorry I squealed, that was the biggest one I've seen in a long time.\n"
p1779
aS'Grab me around the body here, now lean back and kinda thrust a few times... Just like that... A little more... Oh God that feels so much better.\n'
p1780
aS'You can put me down now.\n'
p1781
aS'I was just happy I got him in there!\n'
p1782
aS"I'll stretch it until you come.\n"
p1783
aS'Oh look it finally came up!\n'
p1784
aS"you've got to make sure you shove that all the way in for it to engage.\n"
p1785
aS"I'll start slow and increase my performance.\n"
p1786
aS'Wherever you can find a hole.\n'
p1787
aS'yes go deeper\n'
p1788
aS"I keep trying to tell them that if they want it bigger than 8 1/2 inches, it won't work as well!\n"
p1789
aS"that sounds like a hand job i think you're the right person for that\n"
p1790
aS'ok this is gonna be very hard with four people, so who would like to suck first\n'
p1791
aS"That's beautiful too... with the big balls.\n"
p1792
aS'its packed in too tight I cant get it out\n'
p1793
aS"You have something down there I didn't know you had.\n"
p1794
aS'i cant!!\n'
p1795
aS'He needs to come FASTER!\n'
p1796
aS"hun don't play with it, the more you do the bigger its gonna get.\n"
p1797
aS"Just because your done doesn't mean I am!\n"
p1798
aS"simply start at the base of the rump, rubbing your way out, and follow it to it's natural conclusion.\n"
p1799
aS'Be ready for the second one.\n'
p1800
aS"There's no waiting.\n"
p1801
aS'five minutes is usually great, but sometimes I take it out early if it gets too hot\n'
p1802
aS"It's hard to get it flowing but once you do it's really nice.\n"
p1803
aS'I know, I know, I never do.\n'
p1804
aS"It's a habit.\n"
p1805
aS'Wow, that was a pretty big blast\n'
p1806
aS"I'm sorry.\n"
p1807
aS"You'll just have to bear with it.\n"
p1808
aS"I know its hard, but it's just as hard for everybody else.\n"
p1809
aS"You have to make me come again tomorrow, but I'll probably just sit around and watch you do all of the work.\n"
p1810
aS'You need to stay in longer, your pulling out too soon.\n'
p1811
aS"i can't play with this anymore, I'm all cocked out\n"
p1812
aS'Can that thing even spurt cream out anymore?\n'
p1813
aS"You can't just go in and pull out.\n"
p1814
aS'You gotta stay there for a while.\n'
p1815
aS'Also, keep it steady, nothing is worse than shaking.\n'
p1816
aS"You may think you are doing a good job, but people don't like it.\n"
p1817
aS"This sucks I'm all wet and I don't know where I am\n"
p1818
aS'Why do you open yourself up for that?\n'
p1819
aS"He can't keep it up.\n"
p1820
aS'HEY FATTY, i get the top\n'
p1821
aS"Ouh, that's a honker.\n"
p1822
aS"...Yeah, wow you've really got a honker.\n"
p1823
aS"It's so big, look at all the white stuff coming out\n"
p1824
aS'Just shove it in as hard as you can!\n'
p1825
aS'You guys just keep coming.\n'
p1826
aS'No no!\n'
p1827
aS'Go deeper!\n'
p1828
aS"It's not all the way in yet!\n"
p1829
aS"But I'm not wearing protection!\n"
p1830
aS"I can't get it back in the hole!\n"
p1831
aS'Why is he riding my butt so hard?\n'
p1832
aS"You're in good and deep now.\n"
p1833
aS'I heard you breathing.\n'
p1834
aS"That's how I knew you were coming.\n"
p1835
aS"well I think it's in there but I'm not sure, it's really small\n"
p1836
aS'It just slides in so smoothly, and without any noise!\n'
p1837
aS'make sure to lick your reeds to keep them nice and wet.\n'
p1838
aS"Don't push it too hard, if it doesn't go in you must not being doing it right\n"
p1839
aS'Yeah, last week I beat my sister by putting 6 in my mouth, but then I started choking.\n'
p1840
aS"I know it's hard at first, but just try to relax and take it slow.\n"
p1841
aS"You'll gain confidence and it'll get a lot easier.\n"
p1842
aS"Because I don't want to get down on my knees.\n"
p1843
aS"Put it all the way in, but be sure not to release until you've pulled out.\n"
p1844
aS'Dude, I squeezed it and it shot up into the air and landed on my face!\n'
p1845
aS'Let me get wet real quick.\n'
p1846
aS'Did it go in?\n'
p1847
aS'i almost had that in my face\n'
p1848
aS"The white one doesn't taste any different then the black one.\n"
p1849
aS'Wait could you do that once more, real slow so I can watch.\n'
p1850
aS'Just stick it in there already!\n'
p1851
aS'dang this is huge!\n'
p1852
aS'i can easily fit 3 fingers in here!\n'
p1853
aS'okay i have to stop this my fingers are getting numb.\n'
p1854
aS"it's to long.\n"
p1855
aS"i don't know if this will work.\n"
p1856
aS"It's just shaped so weirdly i don't know how they got it in here\n"
p1857
aS'Well I tried to get it all in my mouth before it made a mess, but it came out so fast.\n'
p1858
aS'it is the same but you have to suck instead of blow\n'
p1859
aS"make sure you bend your knees and grip it tight or we won't get anywhere\n"
p1860
aS'my butt is ready\n'
p1861
aS'Did you know you have a little hole right here?\n'
p1862
aS'Do you ever play with it to make it bigger?\n'
p1863
aS'its not funny it has happened to me and my lower back hurt for 3 days.\n'
p1864
aS"Everything was great, but your oral presentation didn't satisfy me enough\n"
p1865
aS"Oh My God i'm craving a foot long\n"
p1866
aS"I've never gotten one off that fast before!\n"
p1867
aS'Blow it harder, blow it like you mean it.\n'
p1868
aS'what are you doing!\n'
p1869
aS'you are going to get my sheets wet\n'
p1870
aS"I've never done this hole before\n"
p1871
aS'would you stop using your hands and just stick the damn thing in!\n'
p1872
aS"everyone should want to have a big stick, but if you have one, you shouldn't go around telling people about it\n"
p1873
aS"Isn't it the biggest, best, most beautiful cock you have ever seen?\n"
p1874
aS'dude just stick it in this one, it accepts cash\n'
p1875
aS'ok guys, this thing is big and its super hard.\n'
p1876
aS"so what we're going to do is hover right over it, tackle it, and then lower ourselves into it until it sprays.\n"
p1877
aS'got it?\n'
p1878
aS'I thought it would be bigger!\n'
p1879
aS'Its not gonna fit, its oversized\n'
p1880
aS"I can't!\n"
p1881
aS"It's so hard and my mouth is starting to hurt!\n"
p1882
aS'just stick them in any of the holes!\n'
p1883
aS'Man that was so fun!\n'
p1884
aS'I learned so much and felt so good.\n'
p1885
aS"I was hoping that it wouldn't end even though it was so long.\n"
p1886
aS"Dont spread your legs because I'm coming!\n"
p1887
aS'You know I like the short fat ones!\n'
p1888
aS'Anything you can put in your mouth I can put twice as much!\n'
p1889
aS"It hurts a lot the first time it goes in, but it's a lot less painful the second time, and the third time you hardly feel it at all.\n"
p1890
aS"that's it babe...\n"
p1891
aS'Pull out in front of everybody.\n'
p1892
aS"It doesn't have to be long, but it has to please me and it has to be easy for me to see.\n"
p1893
aS'knock it off, you got me wet, now finish already.\n'
p1894
aS'how long does it take to get hard?\n'
p1895
aS"It's huge!\n"
p1896
aS"It's like this long, and that big around.\n"
p1897
aS"I put it in all the way...ohh, wait it's coming now.\n"
p1898
aS'I knew that was gonna be a good one as it was coming out of my mouth.\n'
p1899
aS'were soo wet!\n'
p1900
aS"I dont know what that hole is for, I've never had to stick anything in there\n"
p1901
aS"Wow, that's the most impressive thing I've ever seen.\n"
p1902
aS'Because I always need something in my mouth.\n'
p1903
aS"You don't know what it's like to have these things hanging in your face all the time!\n"
p1904
aS"captain, we've got a breach in the lower level!\n"
p1905
aS"Damnit, you couldn't have pulled out 5 seconds ago?\n"
p1906
aS'You got to learn to work your mouth, and use your hands too.\n'
p1907
aS"I've been blowing this thing for two hours, and I've got nothing!\n"
p1908
aS"It's stuck between two balls and I can't yank it!\n"
p1909
aS'stick it in and keep it in till she comes!\n'
p1910
aS"i'm still waiting for it to go in\n"
p1911
aS'stop messing around in her shrubbery down there.\n'
p1912
aS'I was lying on my back in bed playing with it and it exploded in my face.\n'
p1913
aS"Don't pull out while I'm still coming!\n"
p1914
aS'And then I get to blow on a really long stick.\n'
p1915
aS"Just so you know, I'm going to choke this down for you.\n"
p1916
aS'Its very large and has a big thick protruding object.\n'
p1917
aS'And even after 30 years it still produces the same orgasmic moment.\n'
p1918
aS'it hurts, but its a good hurt.\n'
p1919
aS"It got bigger, it won't fit back there\n"
p1920
aS"It's hot, warm and tastes so good in my mouth.\n"
p1921
aS"Don't hug him, you'll just get all wet.\n"
p1922
aS'How do you eat the foot-long?\n'
p1923
aS"After six inches I'm stuffed!\n"
p1924
aS'Well, I like it both ways!\n'
p1925
aS'i was gonna shove it back in but i was afraid i would get electrocuted!!\n'
p1926
aS'i tried to straddle it but it was too big.\n'
p1927
aS'hey man, you making my holes bigger?\n'
p1928
aS'put your fingers in all the holes.\n'
p1929
aS"You can just come, you don't have to eat.\n"
p1930
aS"CHAD, I'M COMING!\n"
p1931
aS'Why is everyone going so deep today\n'
p1932
aS'Oh good, I finally get to go down.\n'
p1933
aS'i like sucking all the flavor out till it turns white.\n'
p1934
aS'That thing is huge, there is no way that would ever fit inside my body!\n'
p1935
aS'get out of my butt!\n'
p1936
aS"I'm on my back!\n"
p1937
aS"Sorry, I didn't know how hard to do it.\n"
p1938
aS'I nearly had that in my cleavage!\n'
p1939
aS"but then it'd be all dry and you couldn't spread it!\n"
p1940
aS"If you don't take it in the mouth, you know where it's gonna go.\n"
p1941
aS'You are not permitted to do that.\n'
p1942
aS'Nah, its just thick and squishy\n'
p1943
aS"You know, I can fit two in my mouth at the same time, but it's kind of awkward.\n"
p1944
aS"It's not a big load.\n"
p1945
aS'If ure going to come late, come in the back!\n'
p1946
aS"I hate putting it in the back because I can't see where the hole is.\n"
p1947
aS'I mean something more stimulating.\n'
p1948
aS'Hi, I need some caulk.\n'
p1949
aS'Try not to get so soft too fast.\n'
p1950
aS'Are you pushing it in far enough?\n'
p1951
aS"That might be why it's not turned on.\n"
p1952
aS'I wanna blow next!\n'
p1953
aS"I can't stretch it over the thingy!\n"
p1954
aS"OH It's running down my leg, dammit now it's in my sock.\n"
p1955
aS"So that's why I'm not getting any.\n"
p1956
aS"Oh no, it's stuck!\n"
p1957
aS"We're going to have to cut it off!\n"
p1958
aS"It's shorter than I remember!\n"
p1959
aS"Now, a lot of you are doing it or have done it before, so you should have some idea of what you're doing.\n"
p1960
aS"Just because she sticks her head in my crotch doesn't mean you can, too.\n"
p1961
aS'You gotta bend your legs to get the thing in the hole.\n'
p1962
aS"we're soo wet!\n"
p1963
aS'Just sit on it, pull it and it should release.\n'
p1964
aS"It's rubber and it feels weird.\n"
p1965
aS'Oh god!\n'
p1966
aS"There's a hole here too!\n"
p1967
aS"so tonight's the night to make it dirty.\n"
p1968
aS"I like this one because it's skinnier, but longer.\n"
p1969
aS'people could stick things in there and jiggle them around and it could ruin the whole system.\n'
p1970
aS"Oh, it's moist, just the way I like it\n"
p1971
aS'i guess i just liked sticks better than balls\n'
p1972
aS"okay I'll give ya a quickie.\n"
p1973
aS"i know it's long and hard, but try to stick in there.\n"
p1974
aS'put your monster in here\n'
p1975
aS"I hate it when it doesn't come out, because you know it's just going to explode.\n"
p1976
aS'Damn, I lost my grip!\n'
p1977
aS'watch the tip it tends to squirt!\n'
p1978
aS'Bitch, you better not pull out\n'
p1979
aS'Wow it pops up quick!\n'
p1980
aS"I don't think I can fit another one in me, im just too full!\n"
p1981
aS'Every time I squeeze it, it squirts me in the face!\n'
p1982
aS"I know it's longer then usual, but don't be afraid of it\n"
p1983
aS"Come on, just squirt it in my mouth or i'll steal it from you and suck it dry.\n"
p1984
aS"dont push it too hard, it'll bleed.\n"
p1985
aS"just grab one and put it in your mouth, but be careful, it'll drip.\n"
p1986
aS"Man you're just too fast for me.\n"
p1987
aS'you can all go home and practice with your right hands.\n'
p1988
aS"I knew you were coming, but I didn't know you were going to do THAT!\n"
p1989
aS'It looks pretty huge and well-used.\n'
p1990
aS"Don't let it drip on the floor.\n"
p1991
aS'Rub it on your hands\n'
p1992
aS'If you accidentally leave that unzipped, all your stuff will fall out.\n'
p1993
aS"don't get off until I tell you to.\n"
p1994
aS"you wanna get it right the first time, you don't wanna have to keep putting your cargo in and out and in and out cause something might break\n"
p1995
aS'You might wanna shove your hand down there, and see if you can find it before you get in.\n'
p1996
aS'something about it being ultra thick just makes it that much more filling.\n'
p1997
aS'I HATE it!\n'
p1998
aS'He just came out of nowhere!\n'
p1999
aS"It's sore when I touch it and when you touch it\n"
p2000
aS"Now it shouldn't hurt, it just might be a little tight going in there.\n"
p2001
aS"But once it's in there and going back and forth, there shouldn't be any pain.\n"
p2002
aS'The only bad thing about it is the annoying grinding noise it makes!\n'
p2003
aS"I just can't wait to get that 6 inch in my mouth!\n"
p2004
aS'Go hard or go home.\n'
p2005
aS'I thought they were supposed to be bigger\n'
p2006
aS'Stop playing with your self and get on with it, come on boys i want this to be fast paced\n'
p2007
aS'I liked the big balls better.\n'
p2008
aS"It's like I can't breathe without you inside of me.\n"
p2009
aS"you just slide it in and that's it\n"
p2010
aS"It's too big, I need both hands.\n"
p2011
aS'Yeah, hold on.\n'
p2012
aS'let me work the other one\n'
p2013
aS'Great, my pants are getting wet.\n'
p2014
aS"well tonight we're going all the way!\n"
p2015
aS'i spit that out, usually i swallow that sh*it\n'
p2016
aS'Yeah when I get home im gunna rub her down for about an hour n then wax that bitch\n'
p2017
aS'My ass is really sore, but I like it a lot.\n'
p2018
aS'who wants to be the giver this time?\n'
p2019
aS'and who wants to be the receiver?\n'
p2020
aS'Hop On And Off All Day\n'
p2021
aS'Done a couple blacks, you know nothing major.\n'
p2022
aS'No WAY!\n'
p2023
aS'I LOVE MEAT!\n'
p2024
aS'Your bed is comfortable!\n'
p2025
aS"If my whole hand covers it, then it's too small.\n"
p2026
aS'But, its so long and hard!\n'
p2027
aS'yeh he was a little bit stiff though.\n'
p2028
aS'just grab it and shove it up there\n'
p2029
aS"I'm bleeding and it hurts, but I think we should just finish.\n"
p2030
aS"Maybe you can get it in, but it'll be a tight fit.\n"
p2031
aS"I'm sorry I was riding you so hard.\n"
p2032
aS'Jaysus u ripped the shit outa that hole!\n'
p2033
aS"This one's a squirter!\n"
p2034
aS'Somehow it sprayed into my ear too!!\n'
p2035
aS'Grr now im gonna have smelly white crap all over my shirt all day.\n'
p2036
aS"It's bad enough i'm already drenched in sweat.\n"
p2037
aS"Yeah, I don't like them hard.\n"
p2038
aS'It looks funny, but it feels really good\n'
p2039
aS"Geez, it's dripping everywhere!\n"
p2040
aS'I can make it wetter if you want.\n'
p2041
aS'that was the worst seven seconds of my life.\n'
p2042
aS'Dang, I felt that one go in.\n'
p2043
aS'I just bang it hard til it submits.\n'
p2044
aS'its 50 cents a hole.\n'
p2045
aS"Wow, it's so big!\n"
p2046
aS"I can't even open my mouth wide enough to fit the whole thing in!\n"
p2047
aS"You're gonna have to play with getting your hole wide enough.\n"
p2048
aS'i was trying to cheer the pants off of him.\n'
p2049
aS'everything about our intercourse pained me\n'
p2050
aS"I know let's go in deeper\n"
p2051
aS"Please don't spray that!\n"
p2052
aS"I'm not blowing anything!\n"
p2053
aS'If I only had a few more inches.\n'
p2054
aS"Aren't you going to put him in?\n"
p2055
aS"That's what I've been waiting for.\n"
p2056
aS"Would you say that it's more wide or deep?\n"
p2057
aS"Hmm, its wet...but it's not turned on.\n"
p2058
aS"Sorry I just don't use it that often\n"
p2059
aS'it went right in my mouth!\n'
p2060
aS'ew ew ew\n'
p2061
aS'Spread it out so i can see it better.\n'
p2062
aS'oh, man!\n'
p2063
aS'I have never been so wet and sore in my whole life\n'
p2064
aS'Come on, just get it in the hole!\n'
p2065
aS'Its not even that hard!\n'
p2066
aS'that would be a nice slot to fill\n'
p2067
aS'Hold on, I just want to get it up and done.\n'
p2068
aS'Use one finger, not your whole fist.\n'
p2069
aS"I'll give you some cream\n"
p2070
aS'you got me all wet!\n'
p2071
aS"Guess we'll just have to play with it and see what comes out\n"
p2072
aS"Don't worry it's hard at first, but the more you do it the more you get used to it\n"
p2073
aS'First time seeing this video.\n'
p2074
aS'Did Zakk get much bigger since then, or\xef\xbb\xbf is it just me?\n'
p2075
aS'but if I lean over, everyone will see them.\n'
p2076
aS"There's two sizes of holes and it will only fit in the one.\n"
p2077
aS'Make sure you get it right!\n'
p2078
aS'Ive been pounding that into him for the last year and a half.\n'
p2079
aS"wow.. that's a massive organ\n"
p2080
aS'That hit would have scored me so many points!\n'
p2081
aS"Just keep pushing, it'll come.\n"
p2082
aS"Just keep going, I'll put it on later.\n"
p2083
aS'I can feel the vibration against my legs\n'
p2084
aS'Just pull it out gently.\n'
p2085
aS'This thing is so tiny!\n'
p2086
aS'How do I make it bigger?\n'
p2087
aS'you have to grind it nice and slow, that what us woman like\n'
p2088
aS'It hurts when I put it in and out.\n'
p2089
aS"just doesn't like gagging.\n"
p2090
aS'Turn me on and try me!\n'
p2091
aS'Hurry up and come inside.\n'
p2092
aS"The rod's gotta fit in the hole real nice and tight.\n"
p2093
aS"If it slides right in, the hole's too big.\n"
p2094
aS"It's no biggie, you can just back up into my pole\n"
p2095
aS'just go big or go home.\n'
p2096
aS'I know who you are.\n'
p2097
aS'I know what you like.\n'
p2098
aS'I know how you like it.\n'
p2099
aS'Be here in 15-20 minutes.\n'
p2100
aS'oh, you got wood?\n'
p2101
aS'put it in the wrong hole\n'
p2102
aS"I don't get how this works, the thing won't fit in the hole!\n"
p2103
aS'They penetrate into you about this much.\n'
p2104
aS'Pull out now??\n'
p2105
aS'In our moment of triumph?\n'
p2106
aS'she played with bouncy balls all the time\n'
p2107
aS'it went right in my mouth!\n'
p2108
aS'ew ew ew.\n'
p2109
aS"It's times like these where i wish my mouth was bigger.\n"
p2110
aS'yeah cause its too thick..\n'
p2111
aS'Man I hate the feeling of wet wood in my mouth\n'
p2112
aS'that thing is not deep.\n'
p2113
aS'normally i just shove it in and suck it.\n'
p2114
aS"Now, if it's not rising, you may want to reposition your head!\n"
p2115
aS'Oh Fuck!\n'
p2116
aS'going down now.\n'
p2117
aS"Come in the other way, and you've gotta stay in!\n"
p2118
aS'Man, I hate reaching down there and not finding anything.\n'
p2119
aS"some people do it different ways , some use there hands and go rough and some just don't care and go easy.\n"
p2120
aS"Oh my gosh, I love Dick's!\n"
p2121
aS'I like my meat hard.\n'
p2122
aS"It's sooo cute when you nibble it softly like that!\n"
p2123
aS"Wow, I didn't know what to expect and then it just came on my face.\n"
p2124
aS'Ahhhhhh, Ohhhhh, it went right in there.\n'
p2125
aS'Please do not ride me\n'
p2126
aS'Do you want the front or back?\n'
p2127
aS'I hope to come everyday because that means I make money everyday\n'
p2128
aS'Pull it out!\n'
p2129
aS'Pull it out!\n'
p2130
aS'Pull it out!\n'
p2131
aS'Ya i whacked those balls so hard!\n'
p2132
aS"You're getting her all wet just put it in.\n"
p2133
aS'Is it thick?\n'
p2134
aS'no, no, you have to do it harder and faster.\n'
p2135
aS'Man I love footlongs!\n'
p2136
aS'You have to lick it and then blow it.\n'
p2137
aS"Now let's do this loud and hard and fast, like it was meant to be done.\n"
p2138
aS'just put it in your mouth then you can use your hands!\n'
p2139
aS'You have to wait for it to get hard first!\n'
p2140
aS'could fit a little more in.\n'
p2141
aS"Yeah I can, I've done it before, just never in front of people\n"
p2142
aS"The longer they make you wait, the louder you'll scream.\n"
p2143
aS'You have to put it in when you score!\n'
p2144
aS"Just put it in any hole that's wet enough...\n"
p2145
aS"Everyone finally gets into it and then it's over!\n"
p2146
aS'Wow, how do you keep it up\n'
p2147
aS"no, it's just bigger than what I'm used to.\n"
p2148
aS'well you see you have the shaft and you stick it into the hole\n'
p2149
aS"We've been at it for hours!\n"
p2150
aS"Can't we just rest?\n"
p2151
aS"I hated it, I don't like people in my mouth\n"
p2152
aS'Wanna tast my Fazoozle?\n'
p2153
aS"This is the farthest I've ever gone!\n"
p2154
aS'But I banged him!\n'
p2155
aS"It's really big and goes in really deep too.\n"
p2156
aS'Im touched, and im also soaking wet!\n'
p2157
aS'Next time, gently place it in my hands.\n'
p2158
aS"There's not enough in this package!\n"
p2159
aS'you have to go hard at it for 30 seconds\n'
p2160
aS'ok you can pull out now\n'
p2161
aS'Is that one in?\n'
p2162
aS"...I can't tell.\n"
p2163
aS"That's the longest ride I've ever had!\n"
p2164
aS"ewwwww, it's in my hair... some one go get me a towel!\n"
p2165
aS'Justin, stop playing with my rack!\n'
p2166
aS"Put it back in and don't take it out!\n"
p2167
aS"bet you can't stick that whole thing in your mouth!\n"
p2168
aS"I'll squeeze it if I have to.\n"
p2169
aS'do you know how messy it will get if we do that in the tent?\n'
p2170
aS'Sorry but Jason already got my cherry\n'
p2171
aS'Wow, this thing is longer than I thought it was.\n'
p2172
aS'We could jump rope with it!\n'
p2173
aS'I feel so big, it almost hurts.\n'
p2174
aS"Oh I'm easy, I'm always easy.\n"
p2175
aS'Then I caught a MASSIVE one and rode it till all that white stuff was gone!\n'
p2176
aS"It's an acquired taste.\n"
p2177
aS'I got it in my eye!\n'
p2178
aS"It's stinging and burning!\n"
p2179
aS'its so small and skinny and it has no juice.\n'
p2180
aS"I'm sure going to get a big load today!\n"
p2181
aS'See look at how much smaller it is\n'
p2182
aS'Shew, I wish a ride could get me wet for once.\n'
p2183
aS"I'm having a hard time getting it in.\n"
p2184
aS"It just won't go in its too big.\n"
p2185
aS'Is that THING going to come in HERE?\n'
p2186
aS"it's so tiny, it hurts my eyes.\n"
p2187
aS'Mmmmmm, wonderful and wet!\n'
p2188
aS'I really needed that.\n'
p2189
aS'Now, You all need to be up for this game.\n'
p2190
aS'This one is not as big as some of the others I have had.\n'
p2191
aS'I hate how he always puts it in at the wrong time.\n'
p2192
aS"It's so hard, it's become a part of me\n"
p2193
aS"I love the taste, but it's just too big to fit in my mouth!\n"
p2194
aS"whoa that's a lot of nuts\n"
p2195
aS'Make sure you lube it up before you drill it in.\n'
p2196
aS"I'll take a ride on that for $600!\n"
p2197
aS"You're sticking out\n"
p2198
aS"If the SIZE doesn't amaze you, the TASTE will!\n"
p2199
aS"honey stop sticking your bones into people's soft spots!\n"
p2200
aS'What the hell, man?\n'
p2201
aS"I'm putting in so much effort here and you're putting in none at all!\n"
p2202
aS'You have to do some of the work, too!\n'
p2203
aS'You can feel free to put it anywhere you want.\n'
p2204
aS"you guys are never going to get a good sound that way, it doesn't matter if your fingerings are perfect or if your tounging is great, if you don't control your air and blow in a steady unbreakable stream, you will never be successful!\n"
p2205
aS'its all in how you blow!\n'
p2206
aS'Donations accepted in the rear\n'
p2207
aS"Remember, guys, it's not about the size, it's all about the taste,\n"
p2208
aS'it only gets hard when it hits me in the face.\n'
p2209
aS'Straddling wood is more comfortable for me, because I ride.\n'
p2210
aS"let's all just squeeze in and we'll have a good time.\n"
p2211
aS"Ugh, I can't get it out!\n"
p2212
aS'It was so worth getting on my knees for that.\n'
p2213
aS'I usually try to get as much ash (sounding like ass) as possible until I have to knock it off...my record is only 2 inches.\n'
p2214
aS"it'll go down by itself, no need for you to stick your fingers down there\n"
p2215
aS"What'd you have to do that for?!\n"
p2216
aS"I wanted to make 'love'!\n"
p2217
aS'you have to wrap it up before you just stick it in!\n'
p2218
aS"That's a mighty big snake.\n"
p2219
aS"I don't know if you'll be able to fit it all in your mouth.\n"
p2220
aS'I heard it was short, but not that short.\n'
p2221
aS"Man this thing looks small but it's got alot of surface area.\n"
p2222
aS'I know, it was soooo fast\n'
p2223
aS'give me something to ride!\n'
p2224
aS'Is everybody in?\n'
p2225
aS"Wow, that's really stretching it!\n"
p2226
aS'I got her pants so wet!\n'
p2227
aS'other people need to get in there.\n'
p2228
aS"It's long, but its not hard.\n"
p2229
aS'Whoa, I made it bigger!\n'
p2230
aS'oh my knees hurt, can you remind me not to kneel next time?\n'
p2231
aS"You get the front and i'll get the back.\n"
p2232
aS"slow down, i can't get it in the hole.\n"
p2233
aS"If you only do easy ones, then you'll be screwed when you come across a hard one.\n"
p2234
aS'Do you need any help getting it up?\n'
p2235
aS"No, it won't fit in that spot!\n"
p2236
aS'Try the other hole ... See?\n'
p2237
aS'It fits better in there.\n'
p2238
aS"It's ok, I just want your meat.\n"
p2239
aS"It's so wet down here.\n"
p2240
aS"I'm going to get my vibrator and go to bed!\n"
p2241
aS'WRONG HOLE!\n'
p2242
aS"I'M ALL WET AND STICKY!\n"
p2243
aS"Ya, that's the right one.\n"
p2244
aS"I think you're putting it in wrong.\n"
p2245
aS"I don't like it going in really deep at first, but then when I warm up I like going down,\n"
p2246
aS'I think I can get in there.\n'
p2247
aS"Wait, it's stuck in the bush, I don't know if I can get it out...\n"
p2248
aS"Okay, I wake up in the middle of the night, and it feels like he's been inside me\n"
p2249
aS'haha, but seriously its hard.\n'
p2250
aS'Leave it in!!\n'
p2251
aS"I'm getting wet, and its already in too deep!\n"
p2252
aS"I couldn't tell... How into me are you?\n"
p2253
aS'Knead it first, then you gotta suqeeze to get the white stuff out\n'
p2254
aS"What can mess things up is if it's really hard because if it's too hard, you'll be in there for over an hour just putzing around.\n"
p2255
aS'I told him a thousand times not to squirt it in my face but he did it anyway!\n'
p2256
aS'just a little bit more, little bit more, yeah right there.\n'
p2257
aS"Just hold on, I'm coming!\n"
p2258
aS'there was blood everywhere\n'
p2259
aS"Didn't we already do this hole?\n"
p2260
aS"Wow, it's not as hard as it's supposed to be.\n"
p2261
aS'Just hold the two balls in your hand before doing anything else with them\n'
p2262
aS'well if he comes in to my hands i can do what i want with him\n'
p2263
aS'Try to rub it off before you stick it in.\n'
p2264
aS'Screw the white one the black ones bigger and you get more bounce off of it.\n'
p2265
aS'Who cares if its a little hard to control!\n'
p2266
aS"Holy cow, this thing is scary, it's too big for me.\n"
p2267
aS'Get it in my mouth, not on my face!\n'
p2268
aS'Worry less about the ball and more about the head!\n'
p2269
aS"Alright, I'm going to need one of you manly men to put some wood in for me.\n"
p2270
aS'The Nut went down the wrong pipe\n'
p2271
aS"It's practically in my mouth...it's in my mouth!\n"
p2272
aS'[the bracelette] it tends to stretch when wet\n'
p2273
aS'Dang it all!\n'
p2274
aS"It's supposed to be hard, not soft!\n"
p2275
aS'Can I go a day without you trying to jam meat down my throat?\n'
p2276
aS'it tends to stretch when wet\n'
p2277
aS"I've never blown a giraffe before!\n"
p2278
aS"It's okay i get hit in the face with balls all the time!\n"
p2279
aS"There's something wrong, its just not going in!\n"
p2280
aS'oh no its okay, you could push it in more\n'
p2281
aS'Just getting it in correctly is half the battle!\n'
p2282
aS'It was hard, but kinda fun.\n'
p2283
aS"omg, I don't like any of these positions!\n"
p2284
aS'I remember when Dad asked if I was ready to handle a populated road and I was heaps excited but when I came to the intersection, I pulled out too late and a guy came in my ass\n'
p2285
aS'hey stop putting your finger in there!\n'
p2286
aS'Hold it gently...Your shoving it in too hard!\n'
p2287
aS"I couldn't stop staring at it... it was just so red.\n"
p2288
aS'you have to go up and down.\n'
p2289
aS"That's good, because no matter how wet you get her, it still won't penetrate!\n"
p2290
aS'Well, 13 inches is way too small.\n'
p2291
aS"I could do 15, but I'd prefer 17- It'll make everything faster.\n"
p2292
aS"This one's a mouthful\n"
p2293
aS"It's a good three inches deep.\n"
p2294
aS'You should be able to fit a nice big sized rod in there.\n'
p2295
aS"I don't like the thick ones.\n"
p2296
aS"I can't hold on to them if they're too thick.\n"
p2297
aS"There's just something about Papa John's sauce\n"
p2298
aS"Eww.. it's all over me.\n"
p2299
aS"My face is sticky and I'm wet.\n"
p2300
aS'I squeezed one of them too hard and it went up my nose.\n'
p2301
aS'I was gonna blow that!\n'
p2302
aS'wow, look how long that guy is.\n'
p2303
aS'Almost done, only two more holes left!\n'
p2304
aS"tell me if I'm going too fast and I'll slow down.\n"
p2305
aS'He was too lazy to come.\n'
p2306
aS'Oh my God.\n'
p2307
aS"I can't keep this up all night.\n"
p2308
aS"It's too long and hard for me to do!\n"
p2309
aS"And then I'm trying not to scream, and it's just making me more crazy!\n"
p2310
aS'GET IN THE HOLE!\n'
p2311
aS'Damn this thing is just too big!\n'
p2312
aS"I'm gonna freaking EXPLODE!\n"
p2313
aS"it was the best thing I've ever put in my mouth!\n"
p2314
aS'Why are they all so big?\n'
p2315
aS'I just want a small pair of balls!\n'
p2316
aS'Dude, you just blew it all over my face.\n'
p2317
aS'What happened to the rubber?\n'
p2318
aS'First I like to go up, then I like to go down, then from side to side and then all around.\n'
p2319
aS"I really love it, but I'll have to work my way around the nuts\n"
p2320
aS'I love staring at people when they pull out.\n'
p2321
aS"That won't work like that, try putting it in this hole.\n"
p2322
aS"It's short but gets straight to the point\n"
p2323
aS'I thought I could swallow it all, but I was wrong.\n'
p2324
aS'Oh yeah, I love some meat in the morning.\n'
p2325
aS"well that's got to be better than the real thing.\n"
p2326
aS'Joel, Why is this part so big?\n'
p2327
aS'Omg it hurts so much but it feels so good.\n'
p2328
a.